Certificate Revocation List (CRL):
        Version 2 (0x1)
    Signature Algorithm: sha256WithRSAEncryption
        Issuer: /C=US/ST=Montana/L=Bozeman/O=Sawtooth/OU=Consulting/CN=wolfssl.com/emailAddress=info@wolfssl.com
        Last Update: Jul 10 15:55:27 2014 GMT
        Next Update: Jul 10 15:55:27 2015 GMT
        CRL extensions:
            X509v3 CRL Number: 
                1
No Revoked Certificates.
    Signature Algorithm: sha256WithRSAEncryption
         1c:c7:33:6f:ae:97:2e:05:39:09:af:5e:c9:62:9a:2b:ee:39:
         b2:8d:61:6e:58:ea:5a:f4:ec:9b:be:23:27:8e:69:3d:fe:8d:
         fe:7b:29:aa:7a:cb:a0:74:84:f7:25:81:cd:a6:c6:28:5d:a8:
         6e:ae:0c:34:da:8e:c4:39:6c:05:7a:ca:76:e0:d5:b6:c2:61:
         c2:1d:2e:e2:8a:f2:72:17:03:2b:23:9b:8e:82:b8:c8:c2:f9:
         0c:20:7d:e2:b6:8b:0a:93:d3:df:c6:9f:ed:77:7e:98:94:95:
         55:c7:da:20:1f:72:d1:8b:d4:be:2c:66:aa:f2:8c:5d:cc:a0:
         fd:b5:ef:86:77:21:57:18:9e:56:a0:a9:ea:5a:b8:de:75:85:
         46:24:3b:17:90:d7:90:e7:13:2c:bd:15:63:cc:6d:d7:c2:4d:
         99:21:5f:b3:b0:b6:24:89:64:a5:33:da:47:d6:21:e4:14:c2:
         bb:6f:66:f9:d8:9a:2d:73:7a:30:97:d0:f5:8b:18:0b:36:44:
         ed:14:59:6c:37:3a:93:dc:8b:23:29:e6:be:a6:6c:9d:4b:50:
         7c:de:b8:12:bd:a1:df:3b:ff:0a:af:bb:43:fc:ae:db:78:fa:
         b8:1d:7f:77:e2:f5:68:a8:90:6e:a3:7f:da:77:86:06:d5:d5:
         0b:69:05:18
-----BEGIN X509 CRL-----
MIIB6jCB0wIBATANBgkqhkiG9w0BAQsFADCBkDELMAkGA1UEBhMCVVMxEDAOBgNV
BAgMB01vbnRhbmExEDAOBgNVBAcMB0JvemVtYW4xETAPBgNVBAoMCFNhd3Rvb3Ro
MRMwEQYDVQQLDApDb25zdWx0aW5nMRQwEgYDVQQDDAt3b2xmc3NsLmNvbTEfMB0G
CSqGSIb3DQEJARYQaW5mb0B3b2xmc3NsLmNvbRcNMTQwNzEwMTU1NTI3WhcNMTUw
NzEwMTU1NTI3WqAOMAwwCgYDVR0UBAMCAQEwDQYJKoZIhvcNAQELBQADggEBABzH
M2+uly4FOQmvXslimivuObKNYW5Y6lr07Ju+IyeOaT3+jf57Kap6y6B0hPclgc2m
xihdqG6uDDTajsQ5bAV6ynbg1bbCYcIdLuKK8nIXAysjm46CuMjC+QwgfeK2iwqT
09/Gn+13fpiUlVXH2iAfctGL1L4sZqryjF3MoP2174Z3IVcYnlagqepauN51hUYk
OxeQ15DnEyy9FWPMbdfCTZkhX7OwtiSJZKUz2kfWIeQUwrtvZvnYmi1zejCX0PWL
GAs2RO0UWWw3OpPciyMp5r6mbJ1LUHzeuBK9od87/wqvu0P8rtt4+rgdf3fi9Wio
kG6jf9p3hgbV1QtpBRg=
-----END X509 CRL-----
