Certificate Revocation List (CRL):
        Version 2 (0x1)
    Signature Algorithm: sha256WithRSAEncryption
        Issuer: /C=US/ST=Montana/L=Bozeman/O=wolfSSL/OU=Programming/CN=www.wolfssl.com/emailAddress=info@wolfssl.com
        Last Update: Jul 16 17:52:01 2014 GMT
        Next Update: Jul 16 17:52:01 2015 GMT
        CRL extensions:
            X509v3 CRL Number: 
                3
No Revoked Certificates.
    Signature Algorithm: sha256WithRSAEncryption
         be:b9:1b:fa:cd:69:a6:d4:1d:c9:88:89:d9:02:5c:2d:97:84:
         e4:c2:22:16:ec:31:63:47:8c:92:06:0e:cc:b5:8b:39:4c:0e:
         a1:aa:ab:b2:d8:9a:6f:ca:89:77:f3:8f:5b:c0:b7:98:fd:ef:
         2d:1d:fb:82:0e:0a:7e:20:c9:93:ee:f9:41:84:e8:41:39:67:
         9b:bc:32:c8:a0:b2:d8:6b:df:18:d9:8f:0d:65:29:36:27:cd:
         72:ae:36:1a:bd:20:c9:f1:6c:32:9a:75:ea:ef:44:d8:a7:f3:
         1c:7e:54:a0:24:1c:6a:e2:8b:53:d2:87:60:91:90:a5:68:53:
         75:8d:e1:c4:da:a2:0d:4e:bb:f8:92:8b:d0:16:66:be:48:39:
         94:2e:cd:98:06:fa:1e:12:c6:93:c6:88:bb:37:50:d9:82:54:
         8d:84:26:ed:de:fe:79:ec:ba:73:6d:2f:35:78:0b:4d:9a:d4:
         f6:5b:4a:ed:68:b0:2d:2e:8e:f3:95:72:2c:bc:dd:d9:5f:89:
         01:df:77:83:c4:c3:22:a3:6d:71:1f:f4:b0:9c:42:ba:99:cc:
         3c:59:a5:1f:8c:5b:a5:aa:b6:27:3f:20:7d:fa:e3:3c:d6:d0:
         25:81:ee:03:7b:49:01:f5:87:37:d0:16:be:47:f6:6a:9f:4c:
         e4:dd:02:bb
-----BEGIN X509 CRL-----
MIIB7jCB1wIBATANBgkqhkiG9w0BAQsFADCBlDELMAkGA1UEBhMCVVMxEDAOBgNV
BAgMB01vbnRhbmExEDAOBgNVBAcMB0JvemVtYW4xEDAOBgNVBAoMB3dvbGZTU0wx
FDASBgNVBAsMC1Byb2dyYW1taW5nMRgwFgYDVQQDDA93d3cud29sZnNzbC5jb20x
HzAdBgkqhkiG9w0BCQEWEGluZm9Ad29sZnNzbC5jb20XDTE0MDcxNjE3NTIwMVoX
DTE1MDcxNjE3NTIwMVqgDjAMMAoGA1UdFAQDAgEDMA0GCSqGSIb3DQEBCwUAA4IB
AQC+uRv6zWmm1B3JiInZAlwtl4TkwiIW7DFjR4ySBg7MtYs5TA6hqquy2Jpvyol3
849bwLeY/e8tHfuCDgp+IMmT7vlBhOhBOWebvDLIoLLYa98Y2Y8NZSk2J81yrjYa
vSDJ8WwymnXq70TYp/McflSgJBxq4otT0odgkZClaFN1jeHE2qINTrv4kovQFma+
SDmULs2YBvoeEsaTxoi7N1DZglSNhCbt3v557LpzbS81eAtNmtT2W0rtaLAtLo7z
lXIsvN3ZX4kB33eDxMMio21xH/SwnEK6mcw8WaUfjFulqrYnPyB9+uM81tAlge4D
e0kB9Yc30Ba+R/Zqn0zk3QK7
-----END X509 CRL-----
