Certificate Revocation List (CRL):
        Version 2 (0x1)
    Signature Algorithm: sha256WithRSAEncryption
        Issuer: /C=US/ST=Montana/L=Bozeman/O=wolfSSL/OU=Programming/CN=www.wolfssl.com/emailAddress=info@wolfssl.com
        Last Update: Jul 11 22:28:12 2014 GMT
        Next Update: Jul 11 22:28:12 2015 GMT
        CRL extensions:
            X509v3 CRL Number: 
                531
Revoked Certificates:
    Serial Number: 01
        Revocation Date: Jul 11 22:28:08 2014 GMT
    Signature Algorithm: sha256WithRSAEncryption
         c1:c6:23:92:57:78:b2:d7:aa:97:32:87:15:12:9b:62:0c:9e:
         8d:a9:8f:90:6e:ad:1a:d0:45:6d:c1:7c:0b:51:2e:4a:95:27:
         1a:e2:7b:0c:5a:8c:f7:39:64:0f:7a:e1:5d:e5:2d:bc:6f:08:
         21:ee:37:3a:41:89:5d:23:89:7f:d9:a7:0a:fb:5a:2c:42:ad:
         21:6a:24:fa:02:81:24:a3:37:e9:1a:30:2a:dd:af:7a:97:01:
         77:70:e8:fe:34:39:2f:00:d2:8a:49:e0:06:52:9e:11:32:30:
         26:ac:e8:6c:16:b5:f0:59:41:9e:a9:72:32:49:cf:5d:05:8c:
         9f:c4:05:34:43:f3:27:26:7a:db:b4:7c:bc:5c:40:73:93:a0:
         a4:3b:b3:a8:d7:ee:de:75:a5:63:7b:39:d2:9c:9a:0d:9d:c4:
         c3:65:08:d7:38:aa:26:3c:1d:ac:bc:5c:cc:dc:18:2c:e8:2f:
         43:0d:8f:b7:8a:0f:f1:2b:35:70:b0:e7:42:98:7d:08:1d:23:
         af:01:d5:a4:67:6a:c6:f9:5a:dc:0c:ca:ac:f4:55:e2:0f:b0:
         af:4a:52:29:d5:ee:3b:b9:c3:e2:62:e5:ed:c9:63:a9:60:24:
         ec:01:3c:76:3d:b1:f0:e7:93:51:17:74:bc:ae:88:ed:75:0c:
         7d:c6:e2:23
-----BEGIN X509 CRL-----
MIICBTCB7gIBATANBgkqhkiG9w0BAQsFADCBlDELMAkGA1UEBhMCVVMxEDAOBgNV
BAgMB01vbnRhbmExEDAOBgNVBAcMB0JvemVtYW4xEDAOBgNVBAoMB3dvbGZTU0wx
FDASBgNVBAsMC1Byb2dyYW1taW5nMRgwFgYDVQQDDA93d3cud29sZnNzbC5jb20x
HzAdBgkqhkiG9w0BCQEWEGluZm9Ad29sZnNzbC5jb20XDTE0MDcxMTIyMjgxMloX
DTE1MDcxMTIyMjgxMlowFDASAgEBFw0xNDA3MTEyMjI4MDhaoA8wDTALBgNVHRQE
BAICAhMwDQYJKoZIhvcNAQELBQADggEBAMHGI5JXeLLXqpcyhxUSm2IMno2pj5Bu
rRrQRW3BfAtRLkqVJxriewxajPc5ZA964V3lLbxvCCHuNzpBiV0jiX/Zpwr7WixC
rSFqJPoCgSSjN+kaMCrdr3qXAXdw6P40OS8A0opJ4AZSnhEyMCas6GwWtfBZQZ6p
cjJJz10FjJ/EBTRD8ycmetu0fLxcQHOToKQ7s6jX7t51pWN7OdKcmg2dxMNlCNc4
qiY8Hay8XMzcGCzoL0MNj7eKD/ErNXCw50KYfQgdI68B1aRnasb5WtwMyqz0VeIP
sK9KUinV7ju5w+Ji5e3JY6lgJOwBPHY9sfDnk1EXdLyuiO11DH3G4iM=
-----END X509 CRL-----
