Certificate Revocation List (CRL):
        Version 2 (0x1)
    Signature Algorithm: sha256WithRSAEncryption
        Issuer: /C=US/ST=Montana/L=Bozeman/O=wolfSSL/OU=Programming/CN=www.wolfssl.com/emailAddress=info@wolfssl.com
        Last Update: Jul 10 20:05:37 2014 GMT
        Next Update: Jul 10 20:05:37 2015 GMT
        CRL extensions:
            X509v3 CRL Number: 
                34
No Revoked Certificates.
    Signature Algorithm: sha256WithRSAEncryption
         bc:9f:e1:17:0a:f0:b0:06:36:13:62:fd:f8:ed:4b:fc:13:71:
         46:44:cf:19:8a:9c:1c:7c:13:a3:35:9e:37:74:60:8f:24:7b:
         d1:2e:0f:81:4f:a9:27:b5:06:0a:c5:35:2f:c1:a4:eb:7d:4d:
         92:ae:25:e0:05:f8:07:13:f6:f6:af:fe:0e:38:57:88:c1:79:
         91:4b:4c:02:8d:95:5a:91:9e:99:3f:c0:3c:fd:37:2b:8a:08:
         a3:bc:bd:98:45:8c:77:8f:72:40:8f:3c:04:82:33:23:0e:ce:
         6f:68:c9:30:05:af:0b:82:a9:66:68:5d:e5:55:4a:26:b5:9d:
         3d:1e:08:ac:c0:4a:e5:8b:e6:1a:5f:cb:72:40:8e:44:5f:ba:
         a7:6a:3f:0c:dd:bd:80:eb:04:f6:27:5e:c0:4d:a6:23:9a:97:
         94:c3:3d:9e:f3:c6:ab:e0:3d:ab:d3:ef:7c:3c:12:d7:1b:66:
         c0:eb:6d:8a:d5:8b:3c:3c:17:6f:44:48:1b:0d:3e:fa:e2:00:
         33:c1:de:f4:0f:a9:2d:aa:d4:8f:9f:ef:96:a0:a2:b6:91:b8:
         94:77:85:6c:71:5d:61:a6:b4:d4:cf:54:f8:95:2d:e6:c3:7b:
         e8:3e:7f:0a:b1:48:fe:b2:b8:50:49:42:4a:99:4e:18:98:ab:
         bc:8a:73:80
-----BEGIN X509 CRL-----
MIIB7jCB1wIBATANBgkqhkiG9w0BAQsFADCBlDELMAkGA1UEBhMCVVMxEDAOBgNV
BAgMB01vbnRhbmExEDAOBgNVBAcMB0JvemVtYW4xEDAOBgNVBAoMB3dvbGZTU0wx
FDASBgNVBAsMC1Byb2dyYW1taW5nMRgwFgYDVQQDDA93d3cud29sZnNzbC5jb20x
HzAdBgkqhkiG9w0BCQEWEGluZm9Ad29sZnNzbC5jb20XDTE0MDcxMDIwMDUzN1oX
DTE1MDcxMDIwMDUzN1qgDjAMMAoGA1UdFAQDAgEiMA0GCSqGSIb3DQEBCwUAA4IB
AQC8n+EXCvCwBjYTYv347Uv8E3FGRM8ZipwcfBOjNZ43dGCPJHvRLg+BT6kntQYK
xTUvwaTrfU2SriXgBfgHE/b2r/4OOFeIwXmRS0wCjZVakZ6ZP8A8/TcrigijvL2Y
RYx3j3JAjzwEgjMjDs5vaMkwBa8LgqlmaF3lVUomtZ09HgiswErli+YaX8tyQI5E
X7qnaj8M3b2A6wT2J17ATaYjmpeUwz2e88ar4D2r0+98PBLXG2bA622K1Ys8PBdv
REgbDT764gAzwd70D6ktqtSPn++WoKK2kbiUd4VscV1hprTUz1T4lS3mw3voPn8K
sUj+srhQSUJKmU4YmKu8inOA
-----END X509 CRL-----
