Certificate Revocation List (CRL):
        Version 2 (0x1)
    Signature Algorithm: sha256WithRSAEncryption
        Issuer: /C=US/ST=Montana/L=Bozeman/O=Sawtooth/OU=Consulting/CN=wolfssl.com/emailAddress=info@wolfssl.com
        Last Update: Jul 10 19:19:57 2014 GMT
        Next Update: Jul 10 19:19:57 2015 GMT
        CRL extensions:
            X509v3 CRL Number: 
                27
No Revoked Certificates.
    Signature Algorithm: sha256WithRSAEncryption
         6c:7d:f0:80:70:2f:b9:0e:0b:02:95:cc:b4:70:cf:6b:a5:e2:
         19:37:7e:93:a5:56:c8:0b:91:c0:a4:0c:87:3a:9a:02:8a:96:
         55:4a:16:2c:e7:e7:76:06:3b:99:0b:82:be:38:ce:84:7d:0d:
         3d:e3:5b:fa:68:82:cc:49:3e:e8:e7:73:69:b8:62:25:eb:2f:
         3b:7a:d4:e7:9d:62:99:02:4f:1e:99:bf:75:54:0c:ab:a7:fb:
         53:e1:d6:ac:20:6f:3c:b2:3c:ea:f4:85:05:f9:15:b0:08:aa:
         81:71:c9:0f:d0:53:00:2f:2e:47:51:0f:d7:c4:21:39:46:83:
         53:91:8b:e6:2d:a1:ed:a6:a9:e4:79:e0:9b:da:07:d7:e9:cf:
         9a:73:53:e3:bb:e7:00:63:db:f1:73:94:d5:ae:7b:cc:52:bf:
         05:ba:ab:3f:94:b1:83:f3:68:f8:36:73:7a:30:4f:df:24:a6:
         9a:c7:8f:37:07:29:27:4c:cc:af:1a:05:1f:e0:22:88:21:e0:
         5f:45:65:57:b3:dc:6c:51:20:cd:d7:20:0a:8c:69:91:40:2f:
         b2:ac:06:47:e7:c6:98:ad:90:eb:ef:cd:f9:0e:cb:de:57:be:
         04:6e:4d:a2:e2:e9:a9:56:bd:a4:f4:3f:a0:31:5f:93:ad:de:
         9c:28:de:76
-----BEGIN X509 CRL-----
MIIB6jCB0wIBATANBgkqhkiG9w0BAQsFADCBkDELMAkGA1UEBhMCVVMxEDAOBgNV
BAgMB01vbnRhbmExEDAOBgNVBAcMB0JvemVtYW4xETAPBgNVBAoMCFNhd3Rvb3Ro
MRMwEQYDVQQLDApDb25zdWx0aW5nMRQwEgYDVQQDDAt3b2xmc3NsLmNvbTEfMB0G
CSqGSIb3DQEJARYQaW5mb0B3b2xmc3NsLmNvbRcNMTQwNzEwMTkxOTU3WhcNMTUw
NzEwMTkxOTU3WqAOMAwwCgYDVR0UBAMCARswDQYJKoZIhvcNAQELBQADggEBAGx9
8IBwL7kOCwKVzLRwz2ul4hk3fpOlVsgLkcCkDIc6mgKKllVKFizn53YGO5kLgr44
zoR9DT3jW/pogsxJPujnc2m4YiXrLzt61OedYpkCTx6Zv3VUDKun+1Ph1qwgbzyy
POr0hQX5FbAIqoFxyQ/QUwAvLkdRD9fEITlGg1ORi+Ytoe2mqeR54JvaB9fpz5pz
U+O75wBj2/FzlNWue8xSvwW6qz+UsYPzaPg2c3owT98kpprHjzcHKSdMzK8aBR/g
Iogh4F9FZVez3GxRIM3XIAqMaZFAL7KsBkfnxpitkOvvzfkOy95XvgRuTaLi6alW
vaT0P6AxX5Ot3pwo3nY=
-----END X509 CRL-----
