Certificate Revocation List (CRL):
        Version 2 (0x1)
    Signature Algorithm: sha256WithRSAEncryption
        Issuer: /C=US/ST=Montana/L=Bozeman/O=Sawtooth/OU=Consulting/CN=www.wolfssl.com/emailAddress=info@wolfssl.com
        Last Update: Jul 11 22:28:12 2014 GMT
        Next Update: Jul 11 22:28:12 2015 GMT
        CRL extensions:
            X509v3 CRL Number: 
                530
Revoked Certificates:
    Serial Number: 01
        Revocation Date: Jul 11 22:28:08 2014 GMT
    Signature Algorithm: sha256WithRSAEncryption
         55:7a:74:4e:c4:a9:20:52:11:4a:bf:3c:b8:ec:31:ef:49:c4:
         8e:6d:b4:8e:16:e2:95:90:a7:56:ba:d8:44:d4:3a:2a:0a:e4:
         26:4f:3e:c0:8e:51:b3:2c:9c:8b:c5:82:0a:2e:c1:c0:83:fd:
         5d:97:c6:0e:eb:f3:60:b3:47:8d:61:c7:8f:d6:92:af:e6:9a:
         cc:5b:e7:1c:24:c0:cc:51:31:1d:59:05:bc:ac:cb:9d:2b:b7:
         f8:31:1b:f3:93:ea:8d:88:b3:00:c3:85:a7:f2:26:fd:09:06:
         aa:f7:91:42:45:e3:6b:96:b8:20:d9:3e:cc:3b:f5:4d:e3:93:
         3c:6b:66:07:76:5f:d8:24:29:22:63:86:cf:01:0e:10:73:80:
         eb:77:f6:e9:c5:06:14:54:4d:15:b7:6d:b6:90:e5:1f:b3:87:
         00:ea:ad:59:3c:a2:f9:ab:09:76:cb:ed:c3:23:0f:c2:16:ed:
         61:20:e1:02:bc:a0:ba:36:75:9c:b6:61:b0:f6:b6:77:51:02:
         4c:a0:9d:d4:6a:23:97:bd:4a:3e:7a:ab:f3:db:59:85:e0:a3:
         1c:26:41:71:f0:69:16:b7:fd:e0:05:26:c5:72:46:ef:c8:83:
         b4:2b:a1:30:6d:cc:59:0d:90:fd:83:1b:7e:27:25:7a:29:c9:
         81:e2:c4:1e
-----BEGIN X509 CRL-----
MIICBTCB7gIBATANBgkqhkiG9w0BAQsFADCBlDELMAkGA1UEBhMCVVMxEDAOBgNV
BAgMB01vbnRhbmExEDAOBgNVBAcMB0JvemVtYW4xETAPBgNVBAoMCFNhd3Rvb3Ro
MRMwEQYDVQQLDApDb25zdWx0aW5nMRgwFgYDVQQDDA93d3cud29sZnNzbC5jb20x
HzAdBgkqhkiG9w0BCQEWEGluZm9Ad29sZnNzbC5jb20XDTE0MDcxMTIyMjgxMloX
DTE1MDcxMTIyMjgxMlowFDASAgEBFw0xNDA3MTEyMjI4MDhaoA8wDTALBgNVHRQE
BAICAhIwDQYJKoZIhvcNAQELBQADggEBAFV6dE7EqSBSEUq/PLjsMe9JxI5ttI4W
4pWQp1a62ETUOioK5CZPPsCOUbMsnIvFggouwcCD/V2Xxg7r82CzR41hx4/Wkq/m
msxb5xwkwMxRMR1ZBbysy50rt/gxG/OT6o2IswDDhafyJv0JBqr3kUJF42uWuCDZ
Psw79U3jkzxrZgd2X9gkKSJjhs8BDhBzgOt39unFBhRUTRW3bbaQ5R+zhwDqrVk8
ovmrCXbL7cMjD8IW7WEg4QK8oLo2dZy2YbD2tndRAkygndRqI5e9Sj56q/PbWYXg
oxwmQXHwaRa3/eAFJsVyRu/Ig7QroTBtzFkNkP2DG34nJXopyYHixB4=
-----END X509 CRL-----
