Certificate Revocation List (CRL):
        Version 2 (0x1)
    Signature Algorithm: sha256WithRSAEncryption
        Issuer: /C=US/ST=Montana/L=Bozeman/O=Sawtooth/OU=Consulting/CN=www.wolfssl.com/emailAddress=info@wolfssl.com
        Last Update: Jul 11 12:35:27 2014 GMT
        Next Update: Jul 11 12:35:27 2015 GMT
        CRL extensions:
            X509v3 CRL Number: 
                58
No Revoked Certificates.
    Signature Algorithm: sha256WithRSAEncryption
         74:21:50:c3:c6:e0:32:74:75:f9:b0:03:c0:e3:cc:e0:40:3c:
         29:6a:66:74:ce:dd:bf:7a:00:b1:ae:cb:12:75:52:16:76:a1:
         89:59:fa:a9:5f:49:70:0c:d5:db:05:bb:40:0e:20:64:9c:32:
         38:f1:f1:b9:52:7d:8d:76:98:b1:1e:0e:ad:04:7f:cf:1d:39:
         71:84:49:5d:f3:41:eb:c0:4a:bf:84:fa:f3:d3:59:f0:1f:46:
         3f:9e:31:28:ee:db:11:09:f6:f0:bc:84:70:4c:91:34:72:20:
         09:ad:7e:d8:51:91:d7:c6:ef:94:eb:11:3e:35:57:4d:ac:f1:
         df:1f:bb:d3:39:a9:f7:97:b4:b5:c2:46:3b:6b:47:5b:b1:b1:
         8a:2c:29:22:d4:d9:b9:88:b6:93:65:67:91:9d:0e:98:d8:90:
         a8:5f:51:c4:5e:b7:39:ca:12:c2:99:df:97:4c:16:09:00:9e:
         8a:b5:4e:b9:a4:18:a8:4e:7c:34:61:11:4e:ee:0a:74:62:ab:
         5c:c9:9c:5c:66:62:70:5b:7d:a4:01:a2:0f:29:09:fc:5e:92:
         b6:8d:3a:7f:79:b4:ae:d9:9f:de:5f:d1:e5:4b:6c:46:58:ca:
         c3:cd:83:aa:ac:0f:65:3f:9a:af:6c:d5:51:a0:21:8a:99:44:
         8b:e0:37:e1
-----BEGIN X509 CRL-----
MIIB7jCB1wIBATANBgkqhkiG9w0BAQsFADCBlDELMAkGA1UEBhMCVVMxEDAOBgNV
BAgMB01vbnRhbmExEDAOBgNVBAcMB0JvemVtYW4xETAPBgNVBAoMCFNhd3Rvb3Ro
MRMwEQYDVQQLDApDb25zdWx0aW5nMRgwFgYDVQQDDA93d3cud29sZnNzbC5jb20x
HzAdBgkqhkiG9w0BCQEWEGluZm9Ad29sZnNzbC5jb20XDTE0MDcxMTEyMzUyN1oX
DTE1MDcxMTEyMzUyN1qgDjAMMAoGA1UdFAQDAgE6MA0GCSqGSIb3DQEBCwUAA4IB
AQB0IVDDxuAydHX5sAPA48zgQDwpamZ0zt2/egCxrssSdVIWdqGJWfqpX0lwDNXb
BbtADiBknDI48fG5Un2NdpixHg6tBH/PHTlxhEld80HrwEq/hPrz01nwH0Y/njEo
7tsRCfbwvIRwTJE0ciAJrX7YUZHXxu+U6xE+NVdNrPHfH7vTOan3l7S1wkY7a0db
sbGKLCki1Nm5iLaTZWeRnQ6Y2JCoX1HEXrc5yhLCmd+XTBYJAJ6KtU65pBioTnw0
YRFO7gp0YqtcyZxcZmJwW32kAaIPKQn8XpK2jTp/ebSu2Z/eX9HlS2xGWMrDzYOq
rA9lP5qvbNVRoCGKmUSL4Dfh
-----END X509 CRL-----
