Certificate Revocation List (CRL):
        Version 2 (0x1)
    Signature Algorithm: sha256WithRSAEncryption
        Issuer: /C=US/ST=Montana/L=Bozeman/O=Sawtooth/OU=Consulting/CN=www.wolfssl.com/emailAddress=info@wolfssl.com
        Last Update: Jul 16 17:52:01 2014 GMT
        Next Update: Jul 16 17:52:01 2015 GMT
        CRL extensions:
            X509v3 CRL Number: 
                2
Revoked Certificates:
    Serial Number: 01
        Revocation Date: Jul 16 17:52:01 2014 GMT
    Signature Algorithm: sha256WithRSAEncryption
         7d:fc:71:2f:da:8e:47:62:66:50:aa:9d:71:59:44:1b:8c:98:
         56:a7:33:8e:7e:5b:ab:b5:db:96:bc:8e:70:2d:83:f4:9a:6f:
         0a:23:19:16:80:13:c4:5b:d0:6e:f8:32:8e:d7:9c:d3:c0:47:
         c2:bc:89:90:78:43:62:8a:f7:d4:bd:32:e6:7c:df:77:12:af:
         af:3c:14:69:3b:1e:f3:ff:bf:f7:e7:4e:c2:99:fe:17:23:d0:
         0a:ae:15:01:6b:d8:b0:7b:c5:ed:f0:97:27:e2:1d:ae:d2:6c:
         40:83:56:33:23:28:ab:ef:38:40:38:6f:38:fc:76:de:96:c8:
         3c:f4:b9:f0:03:b0:13:e6:04:a9:60:6b:7f:63:2d:51:2e:30:
         2f:6b:84:9b:77:92:f5:78:cf:a1:ec:93:41:ae:a7:f2:ad:44:
         78:18:71:e5:84:eb:a8:d9:cd:d4:65:d4:b1:fd:91:5f:88:16:
         92:3c:f7:ff:a0:54:0d:25:48:40:b0:61:06:f0:b4:b1:13:9a:
         1d:27:15:32:7c:bc:1a:5d:17:5d:28:c7:8b:24:bb:d3:0a:cd:
         fa:90:99:d1:bb:af:8a:18:0e:c9:3e:85:2c:2c:04:f2:15:ef:
         8e:27:95:3c:52:79:8a:7b:64:37:09:cb:cb:48:5b:6f:5c:e5:
         90:cc:ee:f7
-----BEGIN X509 CRL-----
MIICBDCB7QIBATANBgkqhkiG9w0BAQsFADCBlDELMAkGA1UEBhMCVVMxEDAOBgNV
BAgMB01vbnRhbmExEDAOBgNVBAcMB0JvemVtYW4xETAPBgNVBAoMCFNhd3Rvb3Ro
MRMwEQYDVQQLDApDb25zdWx0aW5nMRgwFgYDVQQDDA93d3cud29sZnNzbC5jb20x
HzAdBgkqhkiG9w0BCQEWEGluZm9Ad29sZnNzbC5jb20XDTE0MDcxNjE3NTIwMVoX
DTE1MDcxNjE3NTIwMVowFDASAgEBFw0xNDA3MTYxNzUyMDFaoA4wDDAKBgNVHRQE
AwIBAjANBgkqhkiG9w0BAQsFAAOCAQEAffxxL9qOR2JmUKqdcVlEG4yYVqczjn5b
q7XblryOcC2D9JpvCiMZFoATxFvQbvgyjtec08BHwryJkHhDYor31L0y5nzfdxKv
rzwUaTse8/+/9+dOwpn+FyPQCq4VAWvYsHvF7fCXJ+IdrtJsQINWMyMoq+84QDhv
OPx23pbIPPS58AOwE+YEqWBrf2MtUS4wL2uEm3eS9XjPoeyTQa6n8q1EeBhx5YTr
qNnN1GXUsf2RX4gWkjz3/6BUDSVIQLBhBvC0sROaHScVMny8Gl0XXSjHiyS70wrN
+pCZ0buvihgOyT6FLCwE8hXvjieVPFJ5intkNwnLy0hbb1zlkMzu9w==
-----END X509 CRL-----
