Certificate Revocation List (CRL):
        Version 2 (0x1)
    Signature Algorithm: sha256WithRSAEncryption
        Issuer: /C=US/ST=Montana/L=Bozeman/O=Sawtooth/OU=Consulting/CN=www.wolfssl.com/emailAddress=info@wolfssl.com
        Last Update: Jul 16 17:52:01 2014 GMT
        Next Update: Jul 16 17:52:01 2015 GMT
        CRL extensions:
            X509v3 CRL Number: 
                1
No Revoked Certificates.
    Signature Algorithm: sha256WithRSAEncryption
         7d:4d:08:75:bc:87:27:48:bd:1e:b4:5b:bc:12:b1:6a:21:eb:
         e4:9f:2c:2a:1f:25:cd:c1:9a:6d:11:3f:f1:40:02:ae:96:b9:
         6d:b5:e3:68:9d:1b:85:db:6d:a4:85:0c:92:c0:76:d8:ec:b9:
         8d:58:36:30:dd:4b:73:1f:16:2d:c9:cb:8a:0c:2a:aa:8b:ab:
         b8:2d:2a:44:15:b3:fa:b9:fb:ac:bf:bb:14:79:9c:b9:8d:52:
         d3:8b:c0:64:ec:3b:fa:6d:05:b3:58:25:cd:1e:4b:41:15:21:
         1b:37:a5:ee:72:70:e5:60:71:a2:94:d5:ab:31:c1:8f:8a:81:
         0e:49:43:b2:aa:39:7c:18:92:ac:a0:f7:10:42:3e:50:a1:20:
         e4:b7:1c:88:7d:c4:30:94:36:1b:0e:94:30:e4:ab:c6:41:6e:
         5c:3f:a7:ca:6b:50:06:af:d7:d3:6d:12:1b:47:ff:ce:3b:78:
         11:1c:0b:3a:1a:77:2d:fc:85:af:06:62:94:a0:31:6f:74:a3:
         9b:5f:ca:1f:00:6b:33:47:61:3a:01:7f:96:43:22:34:03:27:
         2f:8f:18:ae:bf:eb:95:e8:2c:89:9e:a8:18:96:4b:e2:3c:55:
         e0:1f:60:3d:1a:3a:98:1d:da:8e:c9:b2:a3:4b:63:0c:40:a5:
         e3:49:47:53
-----BEGIN X509 CRL-----
MIIB7jCB1wIBATANBgkqhkiG9w0BAQsFADCBlDELMAkGA1UEBhMCVVMxEDAOBgNV
BAgMB01vbnRhbmExEDAOBgNVBAcMB0JvemVtYW4xETAPBgNVBAoMCFNhd3Rvb3Ro
MRMwEQYDVQQLDApDb25zdWx0aW5nMRgwFgYDVQQDDA93d3cud29sZnNzbC5jb20x
HzAdBgkqhkiG9w0BCQEWEGluZm9Ad29sZnNzbC5jb20XDTE0MDcxNjE3NTIwMVoX
DTE1MDcxNjE3NTIwMVqgDjAMMAoGA1UdFAQDAgEBMA0GCSqGSIb3DQEBCwUAA4IB
AQB9TQh1vIcnSL0etFu8ErFqIevknywqHyXNwZptET/xQAKulrltteNonRuF222k
hQySwHbY7LmNWDYw3UtzHxYtycuKDCqqi6u4LSpEFbP6ufusv7sUeZy5jVLTi8Bk
7Dv6bQWzWCXNHktBFSEbN6XucnDlYHGilNWrMcGPioEOSUOyqjl8GJKsoPcQQj5Q
oSDktxyIfcQwlDYbDpQw5KvGQW5cP6fKa1AGr9fTbRIbR//OO3gRHAs6Gnct/IWv
BmKUoDFvdKObX8ofAGszR2E6AX+WQyI0Aycvjxiuv+uV6CyJnqgYlkviPFXgH2A9
GjqYHdqOybKjS2MMQKXjSUdT
-----END X509 CRL-----
