Certificate:
    Data:
        Version: 3 (0x2)
        Serial Number:
            f2:70:01:d4:28:af:7c:ab
    Signature Algorithm: sha256WithRSAEncryption
        Issuer: C=US, ST=Montana, L=Bozeman, O=Sawtooth, OU=Consulting, CN=www.wolfssl.com/emailAddress=info@wolfssl.com
        Validity
            Not Before: Jul 16 17:52:01 2014 GMT
            Not After : Apr 11 17:52:01 2017 GMT
        Subject: C=US, ST=Montana, L=Bozeman, O=Sawtooth, OU=Consulting, CN=www.wolfssl.com/emailAddress=info@wolfssl.com
        Subject Public Key Info:
            Public Key Algorithm: rsaEncryption
                Public-Key: (2048 bit)
                Modulus:
                    00:bf:0c:ca:2d:14:b2:1e:84:42:5b:cd:38:1f:4a:
                    f2:4d:75:10:f1:b6:35:9f:df:ca:7d:03:98:d3:ac:
                    de:03:66:ee:2a:f1:d8:b0:7d:6e:07:54:0b:10:98:
                    21:4d:80:cb:12:20:e7:cc:4f:de:45:7d:c9:72:77:
                    32:ea:ca:90:bb:69:52:10:03:2f:a8:f3:95:c5:f1:
                    8b:62:56:1b:ef:67:6f:a4:10:41:95:ad:0a:9b:e3:
                    a5:c0:b0:d2:70:76:50:30:5b:a8:e8:08:2c:7c:ed:
                    a7:a2:7a:8d:38:29:1c:ac:c7:ed:f2:7c:95:b0:95:
                    82:7d:49:5c:38:cd:77:25:ef:bd:80:75:53:94:3c:
                    3d:ca:63:5b:9f:15:b5:d3:1d:13:2f:19:d1:3c:db:
                    76:3a:cc:b8:7d:c9:e5:c2:d7:da:40:6f:d8:21:dc:
                    73:1b:42:2d:53:9c:fe:1a:fc:7d:ab:7a:36:3f:98:
                    de:84:7c:05:67:ce:6a:14:38:87:a9:f1:8c:b5:68:
                    cb:68:7f:71:20:2b:f5:a0:63:f5:56:2f:a3:26:d2:
                    b7:6f:b1:5a:17:d7:38:99:08:fe:93:58:6f:fe:c3:
                    13:49:08:16:0b:a7:4d:67:00:52:31:67:23:4e:98:
                    ed:51:45:1d:b9:04:d9:0b:ec:d8:28:b3:4b:bd:ed:
                    36:79
                Exponent: 65537 (0x10001)
        X509v3 extensions:
            X509v3 Subject Key Identifier: 
                27:8E:67:11:74:C3:26:1D:3F:ED:33:63:B3:A4:D8:1D:30:E5:E8:D5
            X509v3 Authority Key Identifier: 
                keyid:27:8E:67:11:74:C3:26:1D:3F:ED:33:63:B3:A4:D8:1D:30:E5:E8:D5
                DirName:/C=US/ST=Montana/L=Bozeman/O=Sawtooth/OU=Consulting/CN=www.wolfssl.com/emailAddress=info@wolfssl.com
                serial:F2:70:01:D4:28:AF:7C:AB

            X509v3 Basic Constraints: 
                CA:TRUE
    Signature Algorithm: sha256WithRSAEncryption
         56:93:ea:a3:7a:75:db:b0:aa:22:cd:62:a4:51:49:bc:5b:45:
         ff:a6:98:2b:57:dd:24:b9:f0:9a:6c:46:15:fc:99:c8:bf:fc:
         e6:4f:f9:60:68:03:8a:6b:4d:36:e4:a6:42:41:9e:6c:7e:b9:
         02:b0:c6:18:7d:1c:e5:bb:ff:9d:ef:8d:36:4b:14:81:c8:78:
         6b:3f:4d:96:39:04:ec:93:2f:f2:dd:13:2a:c4:54:08:7a:c2:
         05:8b:79:d8:6a:2a:26:aa:41:ac:ab:b2:8b:1c:22:00:85:d9:
         cf:78:ab:16:60:17:29:fb:31:a5:06:d1:33:b2:43:41:9a:bc:
         fc:04:7a:7c:fd:aa:0b:60:f5:13:47:4f:86:88:35:1d:aa:c4:
         71:cc:e4:3a:10:1e:71:62:6b:fb:ac:91:fa:d7:32:e9:3d:41:
         ae:c3:1a:50:c0:20:51:a6:c1:3b:fb:09:59:a0:c7:39:d0:f0:
         ac:b7:aa:3e:81:b7:16:86:53:b7:be:b2:b0:88:ec:b6:79:32:
         18:dc:7b:d2:55:5b:fa:94:7c:aa:84:7b:a9:16:eb:16:b7:85:
         72:fd:92:12:94:70:7a:84:3b:68:be:93:28:eb:35:0a:75:3c:
         38:c1:2a:08:10:5f:35:dc:f7:be:6e:1f:00:f2:09:39:57:2f:
         72:df:91:81
-----BEGIN CERTIFICATE-----
MIIEqjCCA5KgAwIBAgIJAPJwAdQor3yrMA0GCSqGSIb3DQEBCwUAMIGUMQswCQYD
VQQGEwJVUzEQMA4GA1UECAwHTW9udGFuYTEQMA4GA1UEBwwHQm96ZW1hbjERMA8G
A1UECgwIU2F3dG9vdGgxEzARBgNVBAsMCkNvbnN1bHRpbmcxGDAWBgNVBAMMD3d3
dy53b2xmc3NsLmNvbTEfMB0GCSqGSIb3DQEJARYQaW5mb0B3b2xmc3NsLmNvbTAe
Fw0xNDA3MTYxNzUyMDFaFw0xNzA0MTExNzUyMDFaMIGUMQswCQYDVQQGEwJVUzEQ
MA4GA1UECAwHTW9udGFuYTEQMA4GA1UEBwwHQm96ZW1hbjERMA8GA1UECgwIU2F3
dG9vdGgxEzARBgNVBAsMCkNvbnN1bHRpbmcxGDAWBgNVBAMMD3d3dy53b2xmc3Ns
LmNvbTEfMB0GCSqGSIb3DQEJARYQaW5mb0B3b2xmc3NsLmNvbTCCASIwDQYJKoZI
hvcNAQEBBQADggEPADCCAQoCggEBAL8Myi0Ush6EQlvNOB9K8k11EPG2NZ/fyn0D
mNOs3gNm7irx2LB9bgdUCxCYIU2AyxIg58xP3kV9yXJ3MurKkLtpUhADL6jzlcXx
i2JWG+9nb6QQQZWtCpvjpcCw0nB2UDBbqOgILHztp6J6jTgpHKzH7fJ8lbCVgn1J
XDjNdyXvvYB1U5Q8PcpjW58VtdMdEy8Z0TzbdjrMuH3J5cLX2kBv2CHccxtCLVOc
/hr8fat6Nj+Y3oR8BWfOahQ4h6nxjLVoy2h/cSAr9aBj9VYvoybSt2+xWhfXOJkI
/pNYb/7DE0kIFgunTWcAUjFnI06Y7VFFHbkE2Qvs2CizS73tNnkCAwEAAaOB/DCB
+TAdBgNVHQ4EFgQUJ45nEXTDJh0/7TNjs6TYHTDl6NUwgckGA1UdIwSBwTCBvoAU
J45nEXTDJh0/7TNjs6TYHTDl6NWhgZqkgZcwgZQxCzAJBgNVBAYTAlVTMRAwDgYD
VQQIDAdNb250YW5hMRAwDgYDVQQHDAdCb3plbWFuMREwDwYDVQQKDAhTYXd0b290
aDETMBEGA1UECwwKQ29uc3VsdGluZzEYMBYGA1UEAwwPd3d3LndvbGZzc2wuY29t
MR8wHQYJKoZIhvcNAQkBFhBpbmZvQHdvbGZzc2wuY29tggkA8nAB1CivfKswDAYD
VR0TBAUwAwEB/zANBgkqhkiG9w0BAQsFAAOCAQEAVpPqo3p127CqIs1ipFFJvFtF
/6aYK1fdJLnwmmxGFfyZyL/85k/5YGgDimtNNuSmQkGebH65ArDGGH0c5bv/ne+N
NksUgch4az9NljkE7JMv8t0TKsRUCHrCBYt52GoqJqpBrKuyixwiAIXZz3irFmAX
KfsxpQbRM7JDQZq8/AR6fP2qC2D1E0dPhog1HarEcczkOhAecWJr+6yR+tcy6T1B
rsMaUMAgUabBO/sJWaDHOdDwrLeqPoG3FoZTt76ysIjstnkyGNx70lVb+pR8qoR7
qRbrFreFcv2SEpRweoQ7aL6TKOs1CnU8OMEqCBBfNdz3vm4fAPIJOVcvct+RgQ==
-----END CERTIFICATE-----
