Certificate:
    Data:
        Version: 3 (0x2)
        Serial Number:
            ff:d3:2d:dd:60:b8:2a:52
    Signature Algorithm: sha1WithRSAEncryption
        Issuer: C=US, ST=Montana, L=Bozeman, O=Sawtooth, OU=Consulting, CN=wolfssl.com/emailAddress=info@wolfssl.com
        Validity
            Not Before: Jul  3 22:05:56 2014 GMT
            Not After : Mar 29 22:05:56 2017 GMT
        Subject: C=US, ST=Montana, L=Bozeman, O=Sawtooth, OU=Consulting, CN=wolfssl.com/emailAddress=info@wolfssl.com
        Subject Public Key Info:
            Public Key Algorithm: rsaEncryption
                Public-Key: (2048 bit)
                Modulus:
                    00:bf:0c:ca:2d:14:b2:1e:84:42:5b:cd:38:1f:4a:
                    f2:4d:75:10:f1:b6:35:9f:df:ca:7d:03:98:d3:ac:
                    de:03:66:ee:2a:f1:d8:b0:7d:6e:07:54:0b:10:98:
                    21:4d:80:cb:12:20:e7:cc:4f:de:45:7d:c9:72:77:
                    32:ea:ca:90:bb:69:52:10:03:2f:a8:f3:95:c5:f1:
                    8b:62:56:1b:ef:67:6f:a4:10:41:95:ad:0a:9b:e3:
                    a5:c0:b0:d2:70:76:50:30:5b:a8:e8:08:2c:7c:ed:
                    a7:a2:7a:8d:38:29:1c:ac:c7:ed:f2:7c:95:b0:95:
                    82:7d:49:5c:38:cd:77:25:ef:bd:80:75:53:94:3c:
                    3d:ca:63:5b:9f:15:b5:d3:1d:13:2f:19:d1:3c:db:
                    76:3a:cc:b8:7d:c9:e5:c2:d7:da:40:6f:d8:21:dc:
                    73:1b:42:2d:53:9c:fe:1a:fc:7d:ab:7a:36:3f:98:
                    de:84:7c:05:67:ce:6a:14:38:87:a9:f1:8c:b5:68:
                    cb:68:7f:71:20:2b:f5:a0:63:f5:56:2f:a3:26:d2:
                    b7:6f:b1:5a:17:d7:38:99:08:fe:93:58:6f:fe:c3:
                    13:49:08:16:0b:a7:4d:67:00:52:31:67:23:4e:98:
                    ed:51:45:1d:b9:04:d9:0b:ec:d8:28:b3:4b:bd:ed:
                    36:79
                Exponent: 65537 (0x10001)
        X509v3 extensions:
            X509v3 Subject Key Identifier: 
                27:8E:67:11:74:C3:26:1D:3F:ED:33:63:B3:A4:D8:1D:30:E5:E8:D5
            X509v3 Authority Key Identifier: 
                keyid:27:8E:67:11:74:C3:26:1D:3F:ED:33:63:B3:A4:D8:1D:30:E5:E8:D5

            X509v3 Basic Constraints: 
                CA:TRUE
    Signature Algorithm: sha1WithRSAEncryption
         77:d2:2f:4f:69:3c:9e:57:a7:ad:f0:89:ca:e6:1a:87:9f:53:
         39:98:95:c3:37:79:cd:17:5d:57:f4:1e:5b:e1:60:94:43:00:
         1d:c5:48:47:c4:d0:2c:01:cb:9d:14:ec:19:07:e5:d9:01:0d:
         6e:a9:c9:d6:8e:6b:56:c9:4d:98:43:60:f3:c0:50:60:e6:66:
         ca:1c:33:18:82:8b:77:43:50:28:bf:21:00:54:2b:2d:0c:1c:
         97:f1:38:0d:ba:6a:99:14:74:35:24:5d:11:02:f3:65:d3:10:
         cd:2d:12:94:3c:20:35:f4:43:a8:62:ca:96:e4:96:54:0b:ad:
         e8:0e:3b:ba:af:f2:e1:66:ff:a6:b7:fe:ae:f7:f5:b8:bb:6d:
         36:63:58:74:a7:8d:d3:d1:53:23:da:0b:da:93:ac:c5:85:e6:
         16:91:d3:86:a6:8a:a2:50:28:73:6b:c9:65:cd:dd:09:e4:bf:
         d9:ca:a4:d2:8f:52:4c:45:69:e9:aa:96:3f:19:2c:cf:6a:97:
         56:bf:62:72:f5:33:d9:7e:ed:7a:0e:ea:c1:4f:cd:4e:24:97:
         61:c7:0b:8e:1c:d6:77:80:f9:03:ad:83:06:0f:7c:f9:5c:ef:
         f6:50:c7:18:40:35:63:07:48:c5:ed:0a:0b:51:9f:dd:b2:30:
         36:22:cf:c8
-----BEGIN CERTIFICATE-----
MIID9TCCAt2gAwIBAgIJAP/TLd1guCpSMA0GCSqGSIb3DQEBBQUAMIGQMQswCQYD
VQQGEwJVUzEQMA4GA1UECAwHTW9udGFuYTEQMA4GA1UEBwwHQm96ZW1hbjERMA8G
A1UECgwIU2F3dG9vdGgxEzARBgNVBAsMCkNvbnN1bHRpbmcxFDASBgNVBAMMC3dv
bGZzc2wuY29tMR8wHQYJKoZIhvcNAQkBFhBpbmZvQHdvbGZzc2wuY29tMB4XDTE0
MDcwMzIyMDU1NloXDTE3MDMyOTIyMDU1NlowgZAxCzAJBgNVBAYTAlVTMRAwDgYD
VQQIDAdNb250YW5hMRAwDgYDVQQHDAdCb3plbWFuMREwDwYDVQQKDAhTYXd0b290
aDETMBEGA1UECwwKQ29uc3VsdGluZzEUMBIGA1UEAwwLd29sZnNzbC5jb20xHzAd
BgkqhkiG9w0BCQEWEGluZm9Ad29sZnNzbC5jb20wggEiMA0GCSqGSIb3DQEBAQUA
A4IBDwAwggEKAoIBAQC/DMotFLIehEJbzTgfSvJNdRDxtjWf38p9A5jTrN4DZu4q
8diwfW4HVAsQmCFNgMsSIOfMT95FfclydzLqypC7aVIQAy+o85XF8YtiVhvvZ2+k
EEGVrQqb46XAsNJwdlAwW6joCCx87aeieo04KRysx+3yfJWwlYJ9SVw4zXcl772A
dVOUPD3KY1ufFbXTHRMvGdE823Y6zLh9yeXC19pAb9gh3HMbQi1TnP4a/H2rejY/
mN6EfAVnzmoUOIep8Yy1aMtof3EgK/WgY/VWL6Mm0rdvsVoX1ziZCP6TWG/+wxNJ
CBYLp01nAFIxZyNOmO1RRR25BNkL7Ngos0u97TZ5AgMBAAGjUDBOMB0GA1UdDgQW
BBQnjmcRdMMmHT/tM2OzpNgdMOXo1TAfBgNVHSMEGDAWgBQnjmcRdMMmHT/tM2Oz
pNgdMOXo1TAMBgNVHRMEBTADAQH/MA0GCSqGSIb3DQEBBQUAA4IBAQB30i9PaTye
V6et8InK5hqHn1M5mJXDN3nNF11X9B5b4WCUQwAdxUhHxNAsAcudFOwZB+XZAQ1u
qcnWjmtWyU2YQ2DzwFBg5mbKHDMYgot3Q1AovyEAVCstDByX8TgNumqZFHQ1JF0R
AvNl0xDNLRKUPCA19EOoYsqW5JZUC63oDju6r/LhZv+mt/6u9/W4u202Y1h0p43T
0VMj2gvak6zFheYWkdOGpoqiUChza8llzd0J5L/ZyqTSj1JMRWnpqpY/GSzPapdW
v2Jy9TPZfu16DurBT81OJJdhxwuOHNZ3gPkDrYMGD3z5XO/2UMcYQDVjB0jF7QoL
UZ/dsjA2Is/I
-----END CERTIFICATE-----
