Certificate:
    Data:
        Version: 3 (0x2)
        Serial Number:
            ff:cf:b5:9d:f5:5b:f7:dd
    Signature Algorithm: sha256WithRSAEncryption
        Issuer: C=US, ST=Montana, L=Bozeman, O=wolfSSL, OU=Programming, CN=www.wolfssl.com/emailAddress=info@wolfssl.com
        Validity
            Not Before: Jul 10 20:01:43 2014 GMT
            Not After : Apr  5 20:01:43 2017 GMT
        Subject: C=US, ST=Montana, L=Bozeman, O=wolfSSL, OU=Programming, CN=www.wolfssl.com/emailAddress=info@wolfssl.com
        Subject Public Key Info:
            Public Key Algorithm: rsaEncryption
                Public-Key: (2048 bit)
                Modulus:
                    00:c3:03:d1:2b:fe:39:a4:32:45:3b:53:c8:84:2b:
                    2a:7c:74:9a:bd:aa:2a:52:07:47:d6:a6:36:b2:07:
                    32:8e:d0:ba:69:7b:c6:c3:44:9e:d4:81:48:fd:2d:
                    68:a2:8b:67:bb:a1:75:c8:36:2c:4a:d2:1b:f7:8b:
                    ba:cf:0d:f9:ef:ec:f1:81:1e:7b:9b:03:47:9a:bf:
                    65:cc:7f:65:24:69:a6:e8:14:89:5b:e4:34:f7:c5:
                    b0:14:93:f5:67:7b:3a:7a:78:e1:01:56:56:91:a6:
                    13:42:8d:d2:3c:40:9c:4c:ef:d1:86:df:37:51:1b:
                    0c:a1:3b:f5:f1:a3:4a:35:e4:e1:ce:96:df:1b:7e:
                    bf:4e:97:d0:10:e8:a8:08:30:81:af:20:0b:43:14:
                    c5:74:67:b4:32:82:6f:8d:86:c2:88:40:99:36:83:
                    ba:1e:40:72:22:17:d7:52:65:24:73:b0:ce:ef:19:
                    cd:ae:ff:78:6c:7b:c0:12:03:d4:4e:72:0d:50:6d:
                    3b:a3:3b:a3:99:5e:9d:c8:d9:0c:85:b3:d9:8a:d9:
                    54:26:db:6d:fa:ac:bb:ff:25:4c:c4:d1:79:f4:71:
                    d3:86:40:18:13:b0:63:b5:72:4e:30:c4:97:84:86:
                    2d:56:2f:d7:15:f7:7f:c0:ae:f5:fc:5b:e5:fb:a1:
                    ba:d3
                Exponent: 65537 (0x10001)
        X509v3 extensions:
            X509v3 Subject Key Identifier: 
                33:D8:45:66:D7:68:87:18:7E:54:0D:70:27:91:C7:26:D7:85:65:C0
            X509v3 Authority Key Identifier: 
                keyid:33:D8:45:66:D7:68:87:18:7E:54:0D:70:27:91:C7:26:D7:85:65:C0

    Signature Algorithm: sha256WithRSAEncryption
         75:f1:9d:04:84:dd:d4:5f:b8:5d:98:f4:e9:3c:2e:75:7b:95:
         fe:b8:58:25:3c:39:ea:bc:1d:0c:fd:db:74:bc:96:29:f6:05:
         70:11:14:4c:62:38:17:4f:1a:22:a4:ed:46:f9:b7:d2:07:a5:
         ad:32:cc:54:d8:25:df:a2:be:fc:e5:40:b7:42:35:0f:1a:4d:
         43:3e:95:85:91:ab:2d:d5:22:3e:20:60:77:49:5a:b5:d5:96:
         ff:28:f8:60:25:47:10:3f:eb:1e:af:8a:e7:1d:cf:e7:6c:56:
         01:09:94:53:3e:d8:fb:39:89:1f:5e:f0:cc:70:77:65:a4:d0:
         45:cb:f7:53:5b:d8:7c:fa:d2:bc:e7:ff:0e:02:a0:c9:2e:7a:
         b4:f5:44:e9:17:29:1a:97:27:de:85:1b:e2:16:62:50:11:7c:
         06:c4:51:23:c2:fa:41:14:ed:e7:fe:a7:83:8d:7b:a4:18:50:
         9e:52:bb:7d:2d:ae:5e:7a:1f:a4:35:1b:c9:39:f6:99:67:78:
         35:96:b6:30:5e:2d:f9:47:33:24:c2:83:2a:b6:d7:e8:93:c7:
         80:37:89:03:b3:54:d7:13:ac:14:34:72:14:60:7b:aa:4c:df:
         40:81:a5:9b:08:aa:41:ae:75:e9:2b:4b:b0:07:8e:f8:1f:e2:
         39:1a:2d:64
-----BEGIN CERTIFICATE-----
MIID7zCCAtegAwIBAgIJAP/PtZ31W/fdMA0GCSqGSIb3DQEBCwUAMIGUMQswCQYD
VQQGEwJVUzEQMA4GA1UECAwHTW9udGFuYTEQMA4GA1UEBwwHQm96ZW1hbjEQMA4G
A1UECgwHd29sZlNTTDEUMBIGA1UECwwLUHJvZ3JhbW1pbmcxGDAWBgNVBAMMD3d3
dy53b2xmc3NsLmNvbTEfMB0GCSqGSIb3DQEJARYQaW5mb0B3b2xmc3NsLmNvbTAe
Fw0xNDA3MTAyMDAxNDNaFw0xNzA0MDUyMDAxNDNaMIGUMQswCQYDVQQGEwJVUzEQ
MA4GA1UECAwHTW9udGFuYTEQMA4GA1UEBwwHQm96ZW1hbjEQMA4GA1UECgwHd29s
ZlNTTDEUMBIGA1UECwwLUHJvZ3JhbW1pbmcxGDAWBgNVBAMMD3d3dy53b2xmc3Ns
LmNvbTEfMB0GCSqGSIb3DQEJARYQaW5mb0B3b2xmc3NsLmNvbTCCASIwDQYJKoZI
hvcNAQEBBQADggEPADCCAQoCggEBAMMD0Sv+OaQyRTtTyIQrKnx0mr2qKlIHR9am
NrIHMo7Quml7xsNEntSBSP0taKKLZ7uhdcg2LErSG/eLus8N+e/s8YEee5sDR5q/
Zcx/ZSRppugUiVvkNPfFsBST9Wd7Onp44QFWVpGmE0KN0jxAnEzv0YbfN1EbDKE7
9fGjSjXk4c6W3xt+v06X0BDoqAgwga8gC0MUxXRntDKCb42GwohAmTaDuh5AciIX
11JlJHOwzu8Zza7/eGx7wBID1E5yDVBtO6M7o5lencjZDIWz2YrZVCbbbfqsu/8l
TMTRefRx04ZAGBOwY7VyTjDEl4SGLVYv1xX3f8Cu9fxb5fuhutMCAwEAAaNCMEAw
HQYDVR0OBBYEFDPYRWbXaIcYflQNcCeRxybXhWXAMB8GA1UdIwQYMBaAFDPYRWbX
aIcYflQNcCeRxybXhWXAMA0GCSqGSIb3DQEBCwUAA4IBAQB18Z0EhN3UX7hdmPTp
PC51e5X+uFglPDnqvB0M/dt0vJYp9gVwERRMYjgXTxoipO1G+bfSB6WtMsxU2CXf
or785UC3QjUPGk1DPpWFkast1SI+IGB3SVq11Zb/KPhgJUcQP+ser4rnHc/nbFYB
CZRTPtj7OYkfXvDMcHdlpNBFy/dTW9h8+tK85/8OAqDJLnq09UTpFykalyfehRvi
FmJQEXwGxFEjwvpBFO3n/qeDjXukGFCeUrt9La5eeh+kNRvJOfaZZ3g1lrYwXi35
RzMkwoMqttfok8eAN4kDs1TXE6wUNHIUYHuqTN9AgaWbCKpBrnXpK0uwB474H+I5
Gi1k
-----END CERTIFICATE-----
