Certificate:
    Data:
        Version: 3 (0x2)
        Serial Number:
            fa:29:dd:e0:40:d7:b2:fd
    Signature Algorithm: sha1WithRSAEncryption
        Issuer: C=US, ST=Montana, L=Bozeman, O=Sawtooth, OU=Consulting, CN=wolfssl.com/emailAddress=info@wolfssl.com
        Validity
            Not Before: Jul  7 16:26:56 2014 GMT
            Not After : Apr  2 16:26:56 2017 GMT
        Subject: C=US, ST=Montana, L=Bozeman, O=Sawtooth, OU=Consulting, CN=wolfssl.com/emailAddress=info@wolfssl.com
        Subject Public Key Info:
            Public Key Algorithm: rsaEncryption
                Public-Key: (2048 bit)
                Modulus:
                    00:c3:03:d1:2b:fe:39:a4:32:45:3b:53:c8:84:2b:
                    2a:7c:74:9a:bd:aa:2a:52:07:47:d6:a6:36:b2:07:
                    32:8e:d0:ba:69:7b:c6:c3:44:9e:d4:81:48:fd:2d:
                    68:a2:8b:67:bb:a1:75:c8:36:2c:4a:d2:1b:f7:8b:
                    ba:cf:0d:f9:ef:ec:f1:81:1e:7b:9b:03:47:9a:bf:
                    65:cc:7f:65:24:69:a6:e8:14:89:5b:e4:34:f7:c5:
                    b0:14:93:f5:67:7b:3a:7a:78:e1:01:56:56:91:a6:
                    13:42:8d:d2:3c:40:9c:4c:ef:d1:86:df:37:51:1b:
                    0c:a1:3b:f5:f1:a3:4a:35:e4:e1:ce:96:df:1b:7e:
                    bf:4e:97:d0:10:e8:a8:08:30:81:af:20:0b:43:14:
                    c5:74:67:b4:32:82:6f:8d:86:c2:88:40:99:36:83:
                    ba:1e:40:72:22:17:d7:52:65:24:73:b0:ce:ef:19:
                    cd:ae:ff:78:6c:7b:c0:12:03:d4:4e:72:0d:50:6d:
                    3b:a3:3b:a3:99:5e:9d:c8:d9:0c:85:b3:d9:8a:d9:
                    54:26:db:6d:fa:ac:bb:ff:25:4c:c4:d1:79:f4:71:
                    d3:86:40:18:13:b0:63:b5:72:4e:30:c4:97:84:86:
                    2d:56:2f:d7:15:f7:7f:c0:ae:f5:fc:5b:e5:fb:a1:
                    ba:d3
                Exponent: 65537 (0x10001)
        X509v3 extensions:
            X509v3 Subject Key Identifier: 
                33:D8:45:66:D7:68:87:18:7E:54:0D:70:27:91:C7:26:D7:85:65:C0
            X509v3 Authority Key Identifier: 
                keyid:33:D8:45:66:D7:68:87:18:7E:54:0D:70:27:91:C7:26:D7:85:65:C0

            X509v3 Basic Constraints: 
                CA:TRUE
    Signature Algorithm: sha1WithRSAEncryption
         2a:01:f0:fc:08:75:05:bf:72:9a:b2:b1:d1:cc:13:13:b0:39:
         3d:ce:0d:40:47:b6:78:55:f7:b3:06:96:51:4a:0c:3a:40:74:
         31:e5:7a:0e:4e:d3:94:b5:f2:b9:db:9e:a7:73:36:98:e1:f6:
         1d:4e:6f:d4:d4:aa:c5:44:5b:de:5a:56:3f:f4:6a:88:9d:77:
         f2:d6:77:f8:eb:d0:ee:fe:b5:f6:ae:d2:62:09:6b:29:65:43:
         bd:92:51:9f:a0:f6:e8:c2:f2:10:c0:dc:03:72:57:81:f2:af:
         41:4c:5b:f4:a8:eb:0c:4a:16:2e:c1:aa:c2:f8:f2:8d:0a:b4:
         9f:b0:53:b7:1e:f0:32:22:31:a7:ef:d4:73:a1:8d:d0:ea:5d:
         07:66:2a:32:b3:28:8b:c2:26:67:50:d9:0b:87:a9:5e:b7:22:
         09:8b:88:63:4e:ec:4b:7f:7e:10:ea:d5:b9:32:d8:fe:79:c4:
         8b:e5:7d:ee:55:48:bb:fe:b0:b8:7e:c6:c0:f9:75:6d:a6:6c:
         3d:54:92:40:a4:1b:02:4e:ef:62:3b:33:00:de:20:f8:b5:56:
         97:80:14:20:0c:9f:5e:11:f1:41:b5:0b:fe:64:ff:25:3f:8a:
         90:d1:90:0c:15:e8:d4:46:56:69:45:f9:a9:55:98:41:da:43:
         e5:84:b1:77
-----BEGIN CERTIFICATE-----
MIID9TCCAt2gAwIBAgIJAPop3eBA17L9MA0GCSqGSIb3DQEBBQUAMIGQMQswCQYD
VQQGEwJVUzEQMA4GA1UECAwHTW9udGFuYTEQMA4GA1UEBwwHQm96ZW1hbjERMA8G
A1UECgwIU2F3dG9vdGgxEzARBgNVBAsMCkNvbnN1bHRpbmcxFDASBgNVBAMMC3dv
bGZzc2wuY29tMR8wHQYJKoZIhvcNAQkBFhBpbmZvQHdvbGZzc2wuY29tMB4XDTE0
MDcwNzE2MjY1NloXDTE3MDQwMjE2MjY1NlowgZAxCzAJBgNVBAYTAlVTMRAwDgYD
VQQIDAdNb250YW5hMRAwDgYDVQQHDAdCb3plbWFuMREwDwYDVQQKDAhTYXd0b290
aDETMBEGA1UECwwKQ29uc3VsdGluZzEUMBIGA1UEAwwLd29sZnNzbC5jb20xHzAd
BgkqhkiG9w0BCQEWEGluZm9Ad29sZnNzbC5jb20wggEiMA0GCSqGSIb3DQEBAQUA
A4IBDwAwggEKAoIBAQDDA9Er/jmkMkU7U8iEKyp8dJq9qipSB0fWpjayBzKO0Lpp
e8bDRJ7UgUj9LWiii2e7oXXINixK0hv3i7rPDfnv7PGBHnubA0eav2XMf2Ukaabo
FIlb5DT3xbAUk/Vnezp6eOEBVlaRphNCjdI8QJxM79GG3zdRGwyhO/Xxo0o15OHO
lt8bfr9Ol9AQ6KgIMIGvIAtDFMV0Z7Qygm+NhsKIQJk2g7oeQHIiF9dSZSRzsM7v
Gc2u/3hse8ASA9ROcg1QbTujO6OZXp3I2QyFs9mK2VQm2236rLv/JUzE0Xn0cdOG
QBgTsGO1ck4wxJeEhi1WL9cV93/ArvX8W+X7obrTAgMBAAGjUDBOMB0GA1UdDgQW
BBQz2EVm12iHGH5UDXAnkccm14VlwDAfBgNVHSMEGDAWgBQz2EVm12iHGH5UDXAn
kccm14VlwDAMBgNVHRMEBTADAQH/MA0GCSqGSIb3DQEBBQUAA4IBAQAqAfD8CHUF
v3KasrHRzBMTsDk9zg1AR7Z4VfezBpZRSgw6QHQx5XoOTtOUtfK5256nczaY4fYd
Tm/U1KrFRFveWlY/9GqInXfy1nf469Du/rX2rtJiCWspZUO9klGfoPbowvIQwNwD
cleB8q9BTFv0qOsMShYuwarC+PKNCrSfsFO3HvAyIjGn79RzoY3Q6l0HZioysyiL
wiZnUNkLh6letyIJi4hjTuxLf34Q6tW5Mtj+ecSL5X3uVUi7/rC4fsbA+XVtpmw9
VJJApBsCTu9iOzMA3iD4tVaXgBQgDJ9eEfFBtQv+ZP8lP4qQ0ZAMFejURlZpRfmp
VZhB2kPlhLF3
-----END CERTIFICATE-----
