Certificate:
    Data:
        Version: 1 (0x0)
        Serial Number:
            91:06:8a:97:37:13:ad:dc
    Signature Algorithm: sha256WithRSAEncryption
        Issuer: C=US, ST=Montana, L=Bozeman, O=Sawtooth, OU=Consulting, CN=wolfssl.com/emailAddress=info@wolfssl.com
        Validity
            Not Before: Jul 10 15:40:29 2014 GMT
            Not After : Apr  5 15:40:29 2017 GMT
        Subject: C=US, ST=Montana, L=Bozeman, O=Sawtooth, OU=Consulting, CN=wolfssl.com/emailAddress=info@wolfssl.com
        Subject Public Key Info:
            Public Key Algorithm: rsaEncryption
                Public-Key: (2048 bit)
                Modulus:
                    00:c3:03:d1:2b:fe:39:a4:32:45:3b:53:c8:84:2b:
                    2a:7c:74:9a:bd:aa:2a:52:07:47:d6:a6:36:b2:07:
                    32:8e:d0:ba:69:7b:c6:c3:44:9e:d4:81:48:fd:2d:
                    68:a2:8b:67:bb:a1:75:c8:36:2c:4a:d2:1b:f7:8b:
                    ba:cf:0d:f9:ef:ec:f1:81:1e:7b:9b:03:47:9a:bf:
                    65:cc:7f:65:24:69:a6:e8:14:89:5b:e4:34:f7:c5:
                    b0:14:93:f5:67:7b:3a:7a:78:e1:01:56:56:91:a6:
                    13:42:8d:d2:3c:40:9c:4c:ef:d1:86:df:37:51:1b:
                    0c:a1:3b:f5:f1:a3:4a:35:e4:e1:ce:96:df:1b:7e:
                    bf:4e:97:d0:10:e8:a8:08:30:81:af:20:0b:43:14:
                    c5:74:67:b4:32:82:6f:8d:86:c2:88:40:99:36:83:
                    ba:1e:40:72:22:17:d7:52:65:24:73:b0:ce:ef:19:
                    cd:ae:ff:78:6c:7b:c0:12:03:d4:4e:72:0d:50:6d:
                    3b:a3:3b:a3:99:5e:9d:c8:d9:0c:85:b3:d9:8a:d9:
                    54:26:db:6d:fa:ac:bb:ff:25:4c:c4:d1:79:f4:71:
                    d3:86:40:18:13:b0:63:b5:72:4e:30:c4:97:84:86:
                    2d:56:2f:d7:15:f7:7f:c0:ae:f5:fc:5b:e5:fb:a1:
                    ba:d3
                Exponent: 65537 (0x10001)
    Signature Algorithm: sha256WithRSAEncryption
         aa:31:9e:3e:ca:37:6c:73:e9:04:47:43:e8:69:0f:02:f9:29:
         65:3a:b0:22:78:26:df:91:ef:37:ad:f3:e3:fb:e1:eb:21:67:
         d2:6f:dd:6c:6d:81:8b:19:31:26:06:fd:04:de:26:52:0d:54:
         16:2d:a7:71:f5:cb:8d:2c:3d:d2:11:c8:80:64:99:20:0c:e8:
         21:ee:d7:6c:7d:04:f6:c9:cd:01:85:cb:be:da:03:a7:4f:4e:
         eb:13:5f:59:90:a2:0b:38:50:47:e9:1e:a2:67:b7:8a:5e:08:
         49:d7:c4:02:b2:44:96:e5:d5:8c:b0:15:9b:93:4d:9e:04:dc:
         dc:c1:c4:ec:b9:79:68:45:59:7e:f6:85:50:63:5f:5c:50:d6:
         5a:59:7c:d0:63:b4:f4:92:87:77:c9:9b:e4:52:17:b4:99:0d:
         54:75:2e:4a:ec:da:7a:36:43:e4:83:8e:79:20:c1:ef:0c:4a:
         61:69:c7:33:a3:40:0c:34:c2:07:15:42:1a:8d:ce:c8:14:46:
         ab:28:2b:55:d0:5a:c1:39:76:70:3f:04:a2:75:b5:0b:9a:59:
         c6:16:50:68:fc:0e:6c:a4:ed:c5:d5:89:79:6a:f5:55:50:ba:
         52:62:df:e7:48:44:48:bc:e3:23:a0:fc:bb:9c:27:32:ce:f1:
         ae:c6:6b:ff
-----BEGIN CERTIFICATE-----
MIIDnjCCAoYCCQCRBoqXNxOt3DANBgkqhkiG9w0BAQsFADCBkDELMAkGA1UEBhMC
VVMxEDAOBgNVBAgMB01vbnRhbmExEDAOBgNVBAcMB0JvemVtYW4xETAPBgNVBAoM
CFNhd3Rvb3RoMRMwEQYDVQQLDApDb25zdWx0aW5nMRQwEgYDVQQDDAt3b2xmc3Ns
LmNvbTEfMB0GCSqGSIb3DQEJARYQaW5mb0B3b2xmc3NsLmNvbTAeFw0xNDA3MTAx
NTQwMjlaFw0xNzA0MDUxNTQwMjlaMIGQMQswCQYDVQQGEwJVUzEQMA4GA1UECAwH
TW9udGFuYTEQMA4GA1UEBwwHQm96ZW1hbjERMA8GA1UECgwIU2F3dG9vdGgxEzAR
BgNVBAsMCkNvbnN1bHRpbmcxFDASBgNVBAMMC3dvbGZzc2wuY29tMR8wHQYJKoZI
hvcNAQkBFhBpbmZvQHdvbGZzc2wuY29tMIIBIjANBgkqhkiG9w0BAQEFAAOCAQ8A
MIIBCgKCAQEAwwPRK/45pDJFO1PIhCsqfHSavaoqUgdH1qY2sgcyjtC6aXvGw0Se
1IFI/S1oootnu6F1yDYsStIb94u6zw357+zxgR57mwNHmr9lzH9lJGmm6BSJW+Q0
98WwFJP1Z3s6enjhAVZWkaYTQo3SPECcTO/Rht83URsMoTv18aNKNeThzpbfG36/
TpfQEOioCDCBryALQxTFdGe0MoJvjYbCiECZNoO6HkByIhfXUmUkc7DO7xnNrv94
bHvAEgPUTnINUG07ozujmV6dyNkMhbPZitlUJttt+qy7/yVMxNF59HHThkAYE7Bj
tXJOMMSXhIYtVi/XFfd/wK71/Fvl+6G60wIDAQABMA0GCSqGSIb3DQEBCwUAA4IB
AQCqMZ4+yjdsc+kER0PoaQ8C+SllOrAieCbfke83rfPj++HrIWfSb91sbYGLGTEm
Bv0E3iZSDVQWLadx9cuNLD3SEciAZJkgDOgh7tdsfQT2yc0Bhcu+2gOnT07rE19Z
kKILOFBH6R6iZ7eKXghJ18QCskSW5dWMsBWbk02eBNzcwcTsuXloRVl+9oVQY19c
UNZaWXzQY7T0kod3yZvkUhe0mQ1UdS5K7Np6NkPkg455IMHvDEphacczo0AMNMIH
FUIajc7IFEarKCtV0FrBOXZwPwSidbULmlnGFlBo/A5spO3F1Yl5avVVULpSYt/n
SERIvOMjoPy7nCcyzvGuxmv/
-----END CERTIFICATE-----
