Certificate:
    Data:
        Version: 3 (0x2)
        Serial Number:
            e7:de:9c:40:05:96:b1:f2
    Signature Algorithm: sha256WithRSAEncryption
        Issuer: C=US, ST=Montana, L=Bozeman, O=Sawtooth, OU=Consulting, CN=wolfssl.com/emailAddress=info@wolfssl.com
        Validity
            Not Before: Jul 10 19:19:43 2014 GMT
            Not After : Apr  5 19:19:43 2017 GMT
        Subject: C=US, ST=Montana, L=Bozeman, O=Sawtooth, OU=Consulting, CN=wolfssl.com/emailAddress=info@wolfssl.com
        Subject Public Key Info:
            Public Key Algorithm: rsaEncryption
                Public-Key: (2048 bit)
                Modulus:
                    00:c3:03:d1:2b:fe:39:a4:32:45:3b:53:c8:84:2b:
                    2a:7c:74:9a:bd:aa:2a:52:07:47:d6:a6:36:b2:07:
                    32:8e:d0:ba:69:7b:c6:c3:44:9e:d4:81:48:fd:2d:
                    68:a2:8b:67:bb:a1:75:c8:36:2c:4a:d2:1b:f7:8b:
                    ba:cf:0d:f9:ef:ec:f1:81:1e:7b:9b:03:47:9a:bf:
                    65:cc:7f:65:24:69:a6:e8:14:89:5b:e4:34:f7:c5:
                    b0:14:93:f5:67:7b:3a:7a:78:e1:01:56:56:91:a6:
                    13:42:8d:d2:3c:40:9c:4c:ef:d1:86:df:37:51:1b:
                    0c:a1:3b:f5:f1:a3:4a:35:e4:e1:ce:96:df:1b:7e:
                    bf:4e:97:d0:10:e8:a8:08:30:81:af:20:0b:43:14:
                    c5:74:67:b4:32:82:6f:8d:86:c2:88:40:99:36:83:
                    ba:1e:40:72:22:17:d7:52:65:24:73:b0:ce:ef:19:
                    cd:ae:ff:78:6c:7b:c0:12:03:d4:4e:72:0d:50:6d:
                    3b:a3:3b:a3:99:5e:9d:c8:d9:0c:85:b3:d9:8a:d9:
                    54:26:db:6d:fa:ac:bb:ff:25:4c:c4:d1:79:f4:71:
                    d3:86:40:18:13:b0:63:b5:72:4e:30:c4:97:84:86:
                    2d:56:2f:d7:15:f7:7f:c0:ae:f5:fc:5b:e5:fb:a1:
                    ba:d3
                Exponent: 65537 (0x10001)
        X509v3 extensions:
            X509v3 Subject Key Identifier: 
                33:D8:45:66:D7:68:87:18:7E:54:0D:70:27:91:C7:26:D7:85:65:C0
            X509v3 Authority Key Identifier: 
                keyid:33:D8:45:66:D7:68:87:18:7E:54:0D:70:27:91:C7:26:D7:85:65:C0

    Signature Algorithm: sha256WithRSAEncryption
         36:66:07:76:d7:6b:b3:b7:3e:83:e8:6e:4b:1c:5d:3e:bf:5e:
         53:9b:e8:45:d7:c3:a4:c6:57:dd:1a:fa:65:7b:3c:59:eb:0d:
         83:2e:f3:5a:aa:58:bb:04:a2:51:1e:71:9f:34:44:cf:df:6a:
         f1:7f:70:8f:cd:93:a4:0b:df:95:73:77:9b:22:92:41:5f:d8:
         7e:e8:e6:61:5d:d7:56:bc:1e:ce:23:d8:72:68:dd:11:1f:57:
         8b:18:ff:14:60:7d:90:be:db:2e:75:a3:00:db:c4:d8:6a:63:
         e6:6d:78:80:c9:7b:34:77:ff:c2:6d:0c:18:9e:e5:d9:81:f0:
         bf:5b:a4:6c:4e:b4:a5:8d:d4:aa:47:af:cd:75:97:6c:fe:04:
         79:3f:63:0c:da:ee:5b:ea:38:e5:e2:df:19:1f:22:d4:55:40:
         52:67:9d:3c:6d:d2:4c:74:ac:cf:dc:30:d4:28:16:c8:a1:b0:
         9f:f9:f4:7d:2f:79:00:f7:0e:21:c8:e7:a3:cf:31:f0:ef:09:
         d1:2a:2f:e2:c5:c2:aa:c2:aa:e0:96:9c:c6:d5:12:b9:f4:22:
         bb:44:76:af:09:d9:52:3e:01:53:80:bf:b4:0a:0d:a8:95:c8:
         08:c1:15:5a:cf:2e:76:db:68:10:27:c4:b8:60:6b:34:ee:5c:
         c9:0d:88:57
-----BEGIN CERTIFICATE-----
MIID5zCCAs+gAwIBAgIJAOfenEAFlrHyMA0GCSqGSIb3DQEBCwUAMIGQMQswCQYD
VQQGEwJVUzEQMA4GA1UECAwHTW9udGFuYTEQMA4GA1UEBwwHQm96ZW1hbjERMA8G
A1UECgwIU2F3dG9vdGgxEzARBgNVBAsMCkNvbnN1bHRpbmcxFDASBgNVBAMMC3dv
bGZzc2wuY29tMR8wHQYJKoZIhvcNAQkBFhBpbmZvQHdvbGZzc2wuY29tMB4XDTE0
MDcxMDE5MTk0M1oXDTE3MDQwNTE5MTk0M1owgZAxCzAJBgNVBAYTAlVTMRAwDgYD
VQQIDAdNb250YW5hMRAwDgYDVQQHDAdCb3plbWFuMREwDwYDVQQKDAhTYXd0b290
aDETMBEGA1UECwwKQ29uc3VsdGluZzEUMBIGA1UEAwwLd29sZnNzbC5jb20xHzAd
BgkqhkiG9w0BCQEWEGluZm9Ad29sZnNzbC5jb20wggEiMA0GCSqGSIb3DQEBAQUA
A4IBDwAwggEKAoIBAQDDA9Er/jmkMkU7U8iEKyp8dJq9qipSB0fWpjayBzKO0Lpp
e8bDRJ7UgUj9LWiii2e7oXXINixK0hv3i7rPDfnv7PGBHnubA0eav2XMf2Ukaabo
FIlb5DT3xbAUk/Vnezp6eOEBVlaRphNCjdI8QJxM79GG3zdRGwyhO/Xxo0o15OHO
lt8bfr9Ol9AQ6KgIMIGvIAtDFMV0Z7Qygm+NhsKIQJk2g7oeQHIiF9dSZSRzsM7v
Gc2u/3hse8ASA9ROcg1QbTujO6OZXp3I2QyFs9mK2VQm2236rLv/JUzE0Xn0cdOG
QBgTsGO1ck4wxJeEhi1WL9cV93/ArvX8W+X7obrTAgMBAAGjQjBAMB0GA1UdDgQW
BBQz2EVm12iHGH5UDXAnkccm14VlwDAfBgNVHSMEGDAWgBQz2EVm12iHGH5UDXAn
kccm14VlwDANBgkqhkiG9w0BAQsFAAOCAQEANmYHdtdrs7c+g+huSxxdPr9eU5vo
RdfDpMZX3Rr6ZXs8WesNgy7zWqpYuwSiUR5xnzREz99q8X9wj82TpAvflXN3myKS
QV/YfujmYV3XVrweziPYcmjdER9Xixj/FGB9kL7bLnWjANvE2Gpj5m14gMl7NHf/
wm0MGJ7l2YHwv1ukbE60pY3UqkevzXWXbP4EeT9jDNruW+o45eLfGR8i1FVAUmed
PG3STHSsz9ww1CgWyKGwn/n0fS95APcOIcjno88x8O8J0Sov4sXCqsKq4JacxtUS
ufQiu0R2rwnZUj4BU4C/tAoNqJXICMEVWs8udttoECfEuGBrNO5cyQ2IVw==
-----END CERTIFICATE-----
