Certificate:
    Data:
        Version: 3 (0x2)
        Serial Number:
            e6:d1:83:5d:b6:60:c2:f4
    Signature Algorithm: sha256WithRSAEncryption
        Issuer: C=US, ST=Montana, L=Bozeman, O=wolfSSL, OU=Programming, CN=www.wolfssl.com/emailAddress=info@wolfssl.com
        Validity
            Not Before: Jul 10 22:20:00 2014 GMT
            Not After : Apr  5 22:20:00 2017 GMT
        Subject: C=US, ST=Montana, L=Bozeman, O=wolfSSL, OU=Programming, CN=www.wolfssl.com/emailAddress=info@wolfssl.com
        Subject Public Key Info:
            Public Key Algorithm: rsaEncryption
                Public-Key: (2048 bit)
                Modulus:
                    00:c3:03:d1:2b:fe:39:a4:32:45:3b:53:c8:84:2b:
                    2a:7c:74:9a:bd:aa:2a:52:07:47:d6:a6:36:b2:07:
                    32:8e:d0:ba:69:7b:c6:c3:44:9e:d4:81:48:fd:2d:
                    68:a2:8b:67:bb:a1:75:c8:36:2c:4a:d2:1b:f7:8b:
                    ba:cf:0d:f9:ef:ec:f1:81:1e:7b:9b:03:47:9a:bf:
                    65:cc:7f:65:24:69:a6:e8:14:89:5b:e4:34:f7:c5:
                    b0:14:93:f5:67:7b:3a:7a:78:e1:01:56:56:91:a6:
                    13:42:8d:d2:3c:40:9c:4c:ef:d1:86:df:37:51:1b:
                    0c:a1:3b:f5:f1:a3:4a:35:e4:e1:ce:96:df:1b:7e:
                    bf:4e:97:d0:10:e8:a8:08:30:81:af:20:0b:43:14:
                    c5:74:67:b4:32:82:6f:8d:86:c2:88:40:99:36:83:
                    ba:1e:40:72:22:17:d7:52:65:24:73:b0:ce:ef:19:
                    cd:ae:ff:78:6c:7b:c0:12:03:d4:4e:72:0d:50:6d:
                    3b:a3:3b:a3:99:5e:9d:c8:d9:0c:85:b3:d9:8a:d9:
                    54:26:db:6d:fa:ac:bb:ff:25:4c:c4:d1:79:f4:71:
                    d3:86:40:18:13:b0:63:b5:72:4e:30:c4:97:84:86:
                    2d:56:2f:d7:15:f7:7f:c0:ae:f5:fc:5b:e5:fb:a1:
                    ba:d3
                Exponent: 65537 (0x10001)
        X509v3 extensions:
            X509v3 Subject Key Identifier: 
                33:D8:45:66:D7:68:87:18:7E:54:0D:70:27:91:C7:26:D7:85:65:C0
            X509v3 Authority Key Identifier: 
                keyid:33:D8:45:66:D7:68:87:18:7E:54:0D:70:27:91:C7:26:D7:85:65:C0

            X509v3 Basic Constraints: 
                CA:TRUE
    Signature Algorithm: sha256WithRSAEncryption
         7c:2f:db:52:3e:ae:e4:19:74:47:36:3d:3b:17:3c:d1:cf:b0:
         f1:d8:93:8c:a6:1a:a2:3b:42:01:fd:10:11:7b:84:05:bb:c4:
         70:ce:b3:65:62:dc:d1:6e:31:e5:3f:69:3a:08:38:7d:86:42:
         04:12:bd:ec:70:64:ab:cd:77:fc:7e:ce:2b:ae:3b:3e:de:a3:
         4f:a5:3d:bc:9f:ec:48:2c:65:65:13:ca:1d:2d:ee:9b:5f:0d:
         a2:84:9c:75:bf:1e:25:ba:a5:43:48:a6:bb:82:90:59:af:88:
         4b:66:da:3a:91:11:17:1c:08:fd:74:46:63:2a:a7:6e:b8:55:
         c4:d5:f9:06:50:be:f6:9e:26:82:12:e2:8c:3a:46:eb:31:8b:
         56:11:f4:50:da:a5:d8:5e:3e:4a:8c:d1:3d:19:73:e5:1f:5f:
         30:c7:5b:f9:fe:c7:20:70:69:26:6e:97:f1:63:59:1f:e3:78:
         f3:5e:fe:7d:f4:dd:cf:e5:bf:07:25:60:25:c4:4d:53:c4:7e:
         73:bf:bf:b1:a4:72:28:a9:c5:3b:b6:ac:d0:00:c6:2e:17:28:
         92:61:ed:13:84:89:8e:98:cd:53:6a:16:79:7c:56:b0:10:4e:
         dd:3a:c6:1e:11:19:33:77:14:28:41:65:47:aa:a2:11:d0:05:
         7f:e6:5c:ab
-----BEGIN CERTIFICATE-----
MIID/TCCAuWgAwIBAgIJAObRg122YML0MA0GCSqGSIb3DQEBCwUAMIGUMQswCQYD
VQQGEwJVUzEQMA4GA1UECAwHTW9udGFuYTEQMA4GA1UEBwwHQm96ZW1hbjEQMA4G
A1UECgwHd29sZlNTTDEUMBIGA1UECwwLUHJvZ3JhbW1pbmcxGDAWBgNVBAMMD3d3
dy53b2xmc3NsLmNvbTEfMB0GCSqGSIb3DQEJARYQaW5mb0B3b2xmc3NsLmNvbTAe
Fw0xNDA3MTAyMjIwMDBaFw0xNzA0MDUyMjIwMDBaMIGUMQswCQYDVQQGEwJVUzEQ
MA4GA1UECAwHTW9udGFuYTEQMA4GA1UEBwwHQm96ZW1hbjEQMA4GA1UECgwHd29s
ZlNTTDEUMBIGA1UECwwLUHJvZ3JhbW1pbmcxGDAWBgNVBAMMD3d3dy53b2xmc3Ns
LmNvbTEfMB0GCSqGSIb3DQEJARYQaW5mb0B3b2xmc3NsLmNvbTCCASIwDQYJKoZI
hvcNAQEBBQADggEPADCCAQoCggEBAMMD0Sv+OaQyRTtTyIQrKnx0mr2qKlIHR9am
NrIHMo7Quml7xsNEntSBSP0taKKLZ7uhdcg2LErSG/eLus8N+e/s8YEee5sDR5q/
Zcx/ZSRppugUiVvkNPfFsBST9Wd7Onp44QFWVpGmE0KN0jxAnEzv0YbfN1EbDKE7
9fGjSjXk4c6W3xt+v06X0BDoqAgwga8gC0MUxXRntDKCb42GwohAmTaDuh5AciIX
11JlJHOwzu8Zza7/eGx7wBID1E5yDVBtO6M7o5lencjZDIWz2YrZVCbbbfqsu/8l
TMTRefRx04ZAGBOwY7VyTjDEl4SGLVYv1xX3f8Cu9fxb5fuhutMCAwEAAaNQME4w
HQYDVR0OBBYEFDPYRWbXaIcYflQNcCeRxybXhWXAMB8GA1UdIwQYMBaAFDPYRWbX
aIcYflQNcCeRxybXhWXAMAwGA1UdEwQFMAMBAf8wDQYJKoZIhvcNAQELBQADggEB
AHwv21I+ruQZdEc2PTsXPNHPsPHYk4ymGqI7QgH9EBF7hAW7xHDOs2Vi3NFuMeU/
aToIOH2GQgQSvexwZKvNd/x+ziuuOz7eo0+lPbyf7EgsZWUTyh0t7ptfDaKEnHW/
HiW6pUNIpruCkFmviEtm2jqRERccCP10RmMqp264VcTV+QZQvvaeJoIS4ow6Rusx
i1YR9FDapdhePkqM0T0Zc+UfXzDHW/n+xyBwaSZul/FjWR/jePNe/n303c/lvwcl
YCXETVPEfnO/v7GkciipxTu2rNAAxi4XKJJh7ROEiY6YzVNqFnl8VrAQTt06xh4R
GTN3FChBZUeqohHQBX/mXKs=
-----END CERTIFICATE-----
