Certificate:
    Data:
        Version: 3 (0x2)
        Serial Number:
            cc:8e:6f:b1:21:41:ba:97
    Signature Algorithm: sha256WithRSAEncryption
        Issuer: C=US, ST=Montana, L=Bozeman, O=wolfSSL, OU=Programming, CN=www.wolfssl.com/emailAddress=info@wolfssl.com
        Validity
            Not Before: Jul 10 22:58:45 2014 GMT
            Not After : Apr  5 22:58:45 2017 GMT
        Subject: C=US, ST=Montana, L=Bozeman, O=wolfSSL, OU=Programming, CN=www.wolfssl.com/emailAddress=info@wolfssl.com
        Subject Public Key Info:
            Public Key Algorithm: rsaEncryption
                Public-Key: (2048 bit)
                Modulus:
                    00:c3:03:d1:2b:fe:39:a4:32:45:3b:53:c8:84:2b:
                    2a:7c:74:9a:bd:aa:2a:52:07:47:d6:a6:36:b2:07:
                    32:8e:d0:ba:69:7b:c6:c3:44:9e:d4:81:48:fd:2d:
                    68:a2:8b:67:bb:a1:75:c8:36:2c:4a:d2:1b:f7:8b:
                    ba:cf:0d:f9:ef:ec:f1:81:1e:7b:9b:03:47:9a:bf:
                    65:cc:7f:65:24:69:a6:e8:14:89:5b:e4:34:f7:c5:
                    b0:14:93:f5:67:7b:3a:7a:78:e1:01:56:56:91:a6:
                    13:42:8d:d2:3c:40:9c:4c:ef:d1:86:df:37:51:1b:
                    0c:a1:3b:f5:f1:a3:4a:35:e4:e1:ce:96:df:1b:7e:
                    bf:4e:97:d0:10:e8:a8:08:30:81:af:20:0b:43:14:
                    c5:74:67:b4:32:82:6f:8d:86:c2:88:40:99:36:83:
                    ba:1e:40:72:22:17:d7:52:65:24:73:b0:ce:ef:19:
                    cd:ae:ff:78:6c:7b:c0:12:03:d4:4e:72:0d:50:6d:
                    3b:a3:3b:a3:99:5e:9d:c8:d9:0c:85:b3:d9:8a:d9:
                    54:26:db:6d:fa:ac:bb:ff:25:4c:c4:d1:79:f4:71:
                    d3:86:40:18:13:b0:63:b5:72:4e:30:c4:97:84:86:
                    2d:56:2f:d7:15:f7:7f:c0:ae:f5:fc:5b:e5:fb:a1:
                    ba:d3
                Exponent: 65537 (0x10001)
        X509v3 extensions:
            X509v3 Subject Key Identifier: 
                33:D8:45:66:D7:68:87:18:7E:54:0D:70:27:91:C7:26:D7:85:65:C0
            X509v3 Authority Key Identifier: 
                keyid:33:D8:45:66:D7:68:87:18:7E:54:0D:70:27:91:C7:26:D7:85:65:C0
                DirName:/C=US/ST=Montana/L=Bozeman/O=wolfSSL/OU=Programming/CN=www.wolfssl.com/emailAddress=info@wolfssl.com
                serial:CC:8E:6F:B1:21:41:BA:97

            X509v3 Basic Constraints: 
                CA:TRUE
    Signature Algorithm: sha256WithRSAEncryption
         b4:58:2a:38:9f:f6:9b:b0:ca:7e:a5:34:a7:b9:9f:72:7d:ab:
         7b:cd:67:34:69:15:91:ad:c2:a7:cf:90:25:24:65:4d:b5:7c:
         7d:25:09:75:79:e2:6e:29:27:63:2f:66:37:08:8f:1a:02:e0:
         71:78:0e:38:41:c5:b1:b2:d8:c4:f0:6a:63:60:a9:dc:78:94:
         d4:be:e5:a0:e4:99:c4:78:86:d2:e9:f1:2a:ff:e9:b2:a1:dd:
         b2:c0:6f:fa:a6:9f:aa:05:29:02:12:5c:b4:56:69:fc:99:c7:
         33:3b:95:a5:56:f0:50:01:d3:a9:51:1e:6d:f0:e2:c6:8f:e7:
         0f:f2:fe:f7:c7:22:47:39:f3:2e:6a:6c:b5:17:04:34:ca:a5:
         be:a6:82:d7:06:df:8c:bd:a5:6b:e5:c1:28:92:eb:bd:bb:f3:
         2d:d0:1b:e8:b8:9c:7c:bf:d0:92:2f:87:d5:2e:c0:10:57:77:
         fa:3f:6b:15:29:f9:45:e4:09:49:c6:e1:d7:79:53:95:86:70:
         b7:74:e7:d8:a2:fe:82:0f:6b:2a:40:24:5e:81:36:9b:bd:4f:
         57:5f:e2:a4:f7:e6:89:dd:fe:1b:11:ab:ff:fc:b8:77:eb:bc:
         f1:e8:83:7d:81:4a:44:73:80:d6:06:2d:c7:eb:ec:2d:cf:70:
         54:dd:24:6d
-----BEGIN CERTIFICATE-----
MIIEqjCCA5KgAwIBAgIJAMyOb7EhQbqXMA0GCSqGSIb3DQEBCwUAMIGUMQswCQYD
VQQGEwJVUzEQMA4GA1UECAwHTW9udGFuYTEQMA4GA1UEBwwHQm96ZW1hbjEQMA4G
A1UECgwHd29sZlNTTDEUMBIGA1UECwwLUHJvZ3JhbW1pbmcxGDAWBgNVBAMMD3d3
dy53b2xmc3NsLmNvbTEfMB0GCSqGSIb3DQEJARYQaW5mb0B3b2xmc3NsLmNvbTAe
Fw0xNDA3MTAyMjU4NDVaFw0xNzA0MDUyMjU4NDVaMIGUMQswCQYDVQQGEwJVUzEQ
MA4GA1UECAwHTW9udGFuYTEQMA4GA1UEBwwHQm96ZW1hbjEQMA4GA1UECgwHd29s
ZlNTTDEUMBIGA1UECwwLUHJvZ3JhbW1pbmcxGDAWBgNVBAMMD3d3dy53b2xmc3Ns
LmNvbTEfMB0GCSqGSIb3DQEJARYQaW5mb0B3b2xmc3NsLmNvbTCCASIwDQYJKoZI
hvcNAQEBBQADggEPADCCAQoCggEBAMMD0Sv+OaQyRTtTyIQrKnx0mr2qKlIHR9am
NrIHMo7Quml7xsNEntSBSP0taKKLZ7uhdcg2LErSG/eLus8N+e/s8YEee5sDR5q/
Zcx/ZSRppugUiVvkNPfFsBST9Wd7Onp44QFWVpGmE0KN0jxAnEzv0YbfN1EbDKE7
9fGjSjXk4c6W3xt+v06X0BDoqAgwga8gC0MUxXRntDKCb42GwohAmTaDuh5AciIX
11JlJHOwzu8Zza7/eGx7wBID1E5yDVBtO6M7o5lencjZDIWz2YrZVCbbbfqsu/8l
TMTRefRx04ZAGBOwY7VyTjDEl4SGLVYv1xX3f8Cu9fxb5fuhutMCAwEAAaOB/DCB
+TAdBgNVHQ4EFgQUM9hFZtdohxh+VA1wJ5HHJteFZcAwgckGA1UdIwSBwTCBvoAU
M9hFZtdohxh+VA1wJ5HHJteFZcChgZqkgZcwgZQxCzAJBgNVBAYTAlVTMRAwDgYD
VQQIDAdNb250YW5hMRAwDgYDVQQHDAdCb3plbWFuMRAwDgYDVQQKDAd3b2xmU1NM
MRQwEgYDVQQLDAtQcm9ncmFtbWluZzEYMBYGA1UEAwwPd3d3LndvbGZzc2wuY29t
MR8wHQYJKoZIhvcNAQkBFhBpbmZvQHdvbGZzc2wuY29tggkAzI5vsSFBupcwDAYD
VR0TBAUwAwEB/zANBgkqhkiG9w0BAQsFAAOCAQEAtFgqOJ/2m7DKfqU0p7mfcn2r
e81nNGkVka3Cp8+QJSRlTbV8fSUJdXnibiknYy9mNwiPGgLgcXgOOEHFsbLYxPBq
Y2Cp3HiU1L7loOSZxHiG0unxKv/psqHdssBv+qafqgUpAhJctFZp/JnHMzuVpVbw
UAHTqVEebfDixo/nD/L+98ciRznzLmpstRcENMqlvqaC1wbfjL2la+XBKJLrvbvz
LdAb6LicfL/Qki+H1S7AEFd3+j9rFSn5ReQJScbh13lTlYZwt3Tn2KL+gg9rKkAk
XoE2m71PV1/ipPfmid3+GxGr//y4d+u88eiDfYFKRHOA1gYtx+vsLc9wVN0kbQ==
-----END CERTIFICATE-----
