Certificate:
    Data:
        Version: 3 (0x2)
        Serial Number:
            b4:fa:f2:ab:54:2c:8a:59
    Signature Algorithm: ecdsa-with-SHA1
        Issuer: C=US, ST=Montana, L=Bozeman, O=Sawtooth, OU=Consulting, CN=wolfssl.com/emailAddress=info@wolfssl.com
        Validity
            Not Before: Jul  3 22:17:48 2014 GMT
            Not After : Mar 29 22:17:48 2017 GMT
        Subject: C=US, ST=Montana, L=Bozeman, O=Sawtooth, OU=Consulting, CN=wolfssl.com/emailAddress=info@wolfssl.com
        Subject Public Key Info:
            Public Key Algorithm: id-ecPublicKey
                Public-Key: (256 bit)
                pub: 
                    04:55:bf:f4:0f:44:50:9a:3d:ce:9b:b7:f0:c5:4d:
                    f5:70:7b:d4:ec:24:8e:19:80:ec:5a:4c:a2:24:03:
                    62:2c:9b:da:ef:a2:35:12:43:84:76:16:c6:56:95:
                    06:cc:01:a9:bd:f6:75:1a:42:f7:bd:a9:b2:36:22:
                    5f:c7:5d:7f:b4
                ASN1 OID: prime256v1
        X509v3 extensions:
            X509v3 Subject Key Identifier: 
                EB:D4:4B:59:6B:95:61:3F:51:57:B6:04:4D:89:41:88:44:5C:AB:F2
            X509v3 Authority Key Identifier: 
                keyid:EB:D4:4B:59:6B:95:61:3F:51:57:B6:04:4D:89:41:88:44:5C:AB:F2

            X509v3 Basic Constraints: 
                CA:TRUE
    Signature Algorithm: ecdsa-with-SHA1
         30:45:02:20:4c:5c:9a:c9:11:33:08:00:2c:81:e1:df:5f:8b:
         0e:bf:38:bf:22:9d:66:54:5e:db:50:0c:5d:d9:85:17:43:bb:
         02:21:00:8a:b8:b0:a6:37:7d:d1:4f:d9:ff:39:9e:b4:2d:62:
         39:1f:c3:48:e5:e7:b3:3f:fe:3c:84:50:52:71:5e:bb:2d
-----BEGIN CERTIFICATE-----
MIICZzCCAg6gAwIBAgIJALT68qtULIpZMAkGByqGSM49BAEwgZAxCzAJBgNVBAYT
AlVTMRAwDgYDVQQIDAdNb250YW5hMRAwDgYDVQQHDAdCb3plbWFuMREwDwYDVQQK
DAhTYXd0b290aDETMBEGA1UECwwKQ29uc3VsdGluZzEUMBIGA1UEAwwLd29sZnNz
bC5jb20xHzAdBgkqhkiG9w0BCQEWEGluZm9Ad29sZnNzbC5jb20wHhcNMTQwNzAz
MjIxNzQ4WhcNMTcwMzI5MjIxNzQ4WjCBkDELMAkGA1UEBhMCVVMxEDAOBgNVBAgM
B01vbnRhbmExEDAOBgNVBAcMB0JvemVtYW4xETAPBgNVBAoMCFNhd3Rvb3RoMRMw
EQYDVQQLDApDb25zdWx0aW5nMRQwEgYDVQQDDAt3b2xmc3NsLmNvbTEfMB0GCSqG
SIb3DQEJARYQaW5mb0B3b2xmc3NsLmNvbTBZMBMGByqGSM49AgEGCCqGSM49AwEH
A0IABFW/9A9EUJo9zpu38MVN9XB71OwkjhmA7FpMoiQDYiyb2u+iNRJDhHYWxlaV
BswBqb32dRpC972psjYiX8ddf7SjUDBOMB0GA1UdDgQWBBTr1EtZa5VhP1FXtgRN
iUGIRFyr8jAfBgNVHSMEGDAWgBTr1EtZa5VhP1FXtgRNiUGIRFyr8jAMBgNVHRME
BTADAQH/MAkGByqGSM49BAEDSAAwRQIgTFyayREzCAAsgeHfX4sOvzi/Ip1mVF7b
UAxd2YUXQ7sCIQCKuLCmN33RT9n/OZ60LWI5H8NI5eezP/48hFBScV67LQ==
-----END CERTIFICATE-----
