Certificate:
    Data:
        Version: 3 (0x2)
        Serial Number:
            c4:66:eb:ee:c6:7b:ef:61
    Signature Algorithm: sha256WithRSAEncryption
        Issuer: C=US, ST=Montana, L=Bozeman, O=wolfSSL, OU=Programming, CN=www.wolfssl.com/emailAddress=info@wolfssl.com
        Validity
            Not Before: Jul 16 17:52:01 2014 GMT
            Not After : Apr 11 17:52:01 2017 GMT
        Subject: C=US, ST=Montana, L=Bozeman, O=wolfSSL, OU=Programming, CN=www.wolfssl.com/emailAddress=info@wolfssl.com
        Subject Public Key Info:
            Public Key Algorithm: rsaEncryption
                Public-Key: (2048 bit)
                Modulus:
                    00:c3:03:d1:2b:fe:39:a4:32:45:3b:53:c8:84:2b:
                    2a:7c:74:9a:bd:aa:2a:52:07:47:d6:a6:36:b2:07:
                    32:8e:d0:ba:69:7b:c6:c3:44:9e:d4:81:48:fd:2d:
                    68:a2:8b:67:bb:a1:75:c8:36:2c:4a:d2:1b:f7:8b:
                    ba:cf:0d:f9:ef:ec:f1:81:1e:7b:9b:03:47:9a:bf:
                    65:cc:7f:65:24:69:a6:e8:14:89:5b:e4:34:f7:c5:
                    b0:14:93:f5:67:7b:3a:7a:78:e1:01:56:56:91:a6:
                    13:42:8d:d2:3c:40:9c:4c:ef:d1:86:df:37:51:1b:
                    0c:a1:3b:f5:f1:a3:4a:35:e4:e1:ce:96:df:1b:7e:
                    bf:4e:97:d0:10:e8:a8:08:30:81:af:20:0b:43:14:
                    c5:74:67:b4:32:82:6f:8d:86:c2:88:40:99:36:83:
                    ba:1e:40:72:22:17:d7:52:65:24:73:b0:ce:ef:19:
                    cd:ae:ff:78:6c:7b:c0:12:03:d4:4e:72:0d:50:6d:
                    3b:a3:3b:a3:99:5e:9d:c8:d9:0c:85:b3:d9:8a:d9:
                    54:26:db:6d:fa:ac:bb:ff:25:4c:c4:d1:79:f4:71:
                    d3:86:40:18:13:b0:63:b5:72:4e:30:c4:97:84:86:
                    2d:56:2f:d7:15:f7:7f:c0:ae:f5:fc:5b:e5:fb:a1:
                    ba:d3
                Exponent: 65537 (0x10001)
        X509v3 extensions:
            X509v3 Subject Key Identifier: 
                33:D8:45:66:D7:68:87:18:7E:54:0D:70:27:91:C7:26:D7:85:65:C0
            X509v3 Authority Key Identifier: 
                keyid:33:D8:45:66:D7:68:87:18:7E:54:0D:70:27:91:C7:26:D7:85:65:C0
                DirName:/C=US/ST=Montana/L=Bozeman/O=wolfSSL/OU=Programming/CN=www.wolfssl.com/emailAddress=info@wolfssl.com
                serial:C4:66:EB:EE:C6:7B:EF:61

            X509v3 Basic Constraints: 
                CA:TRUE
    Signature Algorithm: sha256WithRSAEncryption
         9c:5a:ed:50:5d:3c:55:57:2e:b0:10:dc:8b:9a:24:76:52:0c:
         ab:11:ed:48:59:99:c8:1c:9f:ef:f0:d1:85:ca:1a:6c:e6:a9:
         45:e3:6a:89:fd:0e:44:26:02:f4:d8:1f:9a:43:19:5b:a9:5c:
         5b:78:43:61:ae:f6:64:1e:78:41:2b:3f:b2:ef:3f:c8:61:24:
         16:16:3f:28:27:67:e3:27:a8:1c:e4:a3:dc:96:12:88:7c:6c:
         11:a7:8f:3f:02:e5:b0:18:4d:f9:c6:0a:82:9d:36:b1:c7:67:
         4f:5c:13:25:cd:33:93:1d:94:3f:9b:80:64:dc:43:12:a0:f5:
         ca:ef:f1:33:a8:82:a3:90:c1:00:31:1f:24:e8:48:d0:3d:b2:
         06:f3:1b:6e:1c:08:41:cc:9f:65:53:05:18:62:3b:bf:08:da:
         e9:73:05:1a:8d:b2:0d:a4:f4:bd:bd:3c:7b:a2:9f:ff:c2:3f:
         07:a5:3d:88:e2:ee:8a:aa:e0:a1:9a:9e:6d:2c:3c:ac:3a:b6:
         3f:c4:d1:cb:7a:e0:cb:bf:42:bc:35:1f:ec:25:b1:73:f6:5c:
         5b:f3:99:8f:bd:20:c7:18:89:37:c3:cc:ab:0c:93:e5:b0:cc:
         22:73:ce:53:ad:45:5b:a1:f2:37:06:7d:95:da:ce:ed:c2:33:
         1f:cf:a4:81
-----BEGIN CERTIFICATE-----
MIIEqjCCA5KgAwIBAgIJAMRm6+7Ge+9hMA0GCSqGSIb3DQEBCwUAMIGUMQswCQYD
VQQGEwJVUzEQMA4GA1UECAwHTW9udGFuYTEQMA4GA1UEBwwHQm96ZW1hbjEQMA4G
A1UECgwHd29sZlNTTDEUMBIGA1UECwwLUHJvZ3JhbW1pbmcxGDAWBgNVBAMMD3d3
dy53b2xmc3NsLmNvbTEfMB0GCSqGSIb3DQEJARYQaW5mb0B3b2xmc3NsLmNvbTAe
Fw0xNDA3MTYxNzUyMDFaFw0xNzA0MTExNzUyMDFaMIGUMQswCQYDVQQGEwJVUzEQ
MA4GA1UECAwHTW9udGFuYTEQMA4GA1UEBwwHQm96ZW1hbjEQMA4GA1UECgwHd29s
ZlNTTDEUMBIGA1UECwwLUHJvZ3JhbW1pbmcxGDAWBgNVBAMMD3d3dy53b2xmc3Ns
LmNvbTEfMB0GCSqGSIb3DQEJARYQaW5mb0B3b2xmc3NsLmNvbTCCASIwDQYJKoZI
hvcNAQEBBQADggEPADCCAQoCggEBAMMD0Sv+OaQyRTtTyIQrKnx0mr2qKlIHR9am
NrIHMo7Quml7xsNEntSBSP0taKKLZ7uhdcg2LErSG/eLus8N+e/s8YEee5sDR5q/
Zcx/ZSRppugUiVvkNPfFsBST9Wd7Onp44QFWVpGmE0KN0jxAnEzv0YbfN1EbDKE7
9fGjSjXk4c6W3xt+v06X0BDoqAgwga8gC0MUxXRntDKCb42GwohAmTaDuh5AciIX
11JlJHOwzu8Zza7/eGx7wBID1E5yDVBtO6M7o5lencjZDIWz2YrZVCbbbfqsu/8l
TMTRefRx04ZAGBOwY7VyTjDEl4SGLVYv1xX3f8Cu9fxb5fuhutMCAwEAAaOB/DCB
+TAdBgNVHQ4EFgQUM9hFZtdohxh+VA1wJ5HHJteFZcAwgckGA1UdIwSBwTCBvoAU
M9hFZtdohxh+VA1wJ5HHJteFZcChgZqkgZcwgZQxCzAJBgNVBAYTAlVTMRAwDgYD
VQQIDAdNb250YW5hMRAwDgYDVQQHDAdCb3plbWFuMRAwDgYDVQQKDAd3b2xmU1NM
MRQwEgYDVQQLDAtQcm9ncmFtbWluZzEYMBYGA1UEAwwPd3d3LndvbGZzc2wuY29t
MR8wHQYJKoZIhvcNAQkBFhBpbmZvQHdvbGZzc2wuY29tggkAxGbr7sZ772EwDAYD
VR0TBAUwAwEB/zANBgkqhkiG9w0BAQsFAAOCAQEAnFrtUF08VVcusBDci5okdlIM
qxHtSFmZyByf7/DRhcoabOapReNqif0ORCYC9NgfmkMZW6lcW3hDYa72ZB54QSs/
su8/yGEkFhY/KCdn4yeoHOSj3JYSiHxsEaePPwLlsBhN+cYKgp02scdnT1wTJc0z
kx2UP5uAZNxDEqD1yu/xM6iCo5DBADEfJOhI0D2yBvMbbhwIQcyfZVMFGGI7vwja
6XMFGo2yDaT0vb08e6Kf/8I/B6U9iOLuiqrgoZqebSw8rDq2P8TRy3rgy79CvDUf
7CWxc/ZcW/OZj70gxxiJN8PMqwyT5bDMInPOU61FW6HyNwZ9ldrO7cIzH8+kgQ==
-----END CERTIFICATE-----
