Certificate:
    Data:
        Version: 3 (0x2)
        Serial Number: 1 (0x1)
    Signature Algorithm: sha1WithRSAEncryption
        Issuer: C=US, ST=Montana, L=Bozeman, O=Sawtooth, OU=Consulting, CN=www.yassl.com/emailAddress=info@yassl.com
        Validity
            Not Before: Jul 11 02:18:06 2014 GMT
            Not After : Apr  6 02:18:06 2017 GMT
        Subject: C=US, ST=Montana, L=Bozeman, O=Sawtooth, OU=Consulting, CN=www.wolfssl.com/emailAddress=info@wolfssl.com
        Subject Public Key Info:
            Public Key Algorithm: rsaEncryption
                Public-Key: (2048 bit)
                Modulus:
                    00:c0:95:08:e1:57:41:f2:71:6d:b7:d2:45:41:27:
                    01:65:c6:45:ae:f2:bc:24:30:b8:95:ce:2f:4e:d6:
                    f6:1c:88:bc:7c:9f:fb:a8:67:7f:fe:5c:9c:51:75:
                    f7:8a:ca:07:e7:35:2f:8f:e1:bd:7b:c0:2f:7c:ab:
                    64:a8:17:fc:ca:5d:7b:ba:e0:21:e5:72:2e:6f:2e:
                    86:d8:95:73:da:ac:1b:53:b9:5f:3f:d7:19:0d:25:
                    4f:e1:63:63:51:8b:0b:64:3f:ad:43:b8:a5:1c:5c:
                    34:b3:ae:00:a0:63:c5:f6:7f:0b:59:68:78:73:a6:
                    8c:18:a9:02:6d:af:c3:19:01:2e:b8:10:e3:c6:cc:
                    40:b4:69:a3:46:33:69:87:6e:c4:bb:17:a6:f3:e8:
                    dd:ad:73:bc:7b:2f:21:b5:fd:66:51:0c:bd:54:b3:
                    e1:6d:5f:1c:bc:23:73:d1:09:03:89:14:d2:10:b9:
                    64:c3:2a:d0:a1:96:4a:bc:e1:d4:1a:5b:c7:a0:c0:
                    c1:63:78:0f:44:37:30:32:96:80:32:23:95:a1:77:
                    ba:13:d2:97:73:e2:5d:25:c9:6a:0d:c3:39:60:a4:
                    b4:b0:69:42:42:09:e9:d8:08:bc:33:20:b3:58:22:
                    a7:aa:eb:c4:e1:e6:61:83:c5:d2:96:df:d9:d0:4f:
                    ad:d7
                Exponent: 65537 (0x10001)
        X509v3 extensions:
            X509v3 Subject Key Identifier: 
                B3:11:32:C9:92:98:84:E2:C9:F8:D0:3B:6E:03:42:CA:1F:0E:8E:3C
            X509v3 Authority Key Identifier: 
                keyid:27:8E:67:11:74:C3:26:1D:3F:ED:33:63:B3:A4:D8:1D:30:E5:E8:D5
                DirName:/C=US/ST=Montana/L=Bozeman/O=Sawtooth/OU=Consulting/CN=www.yassl.com/emailAddress=info@yassl.com
                serial:E9:D0:A7:5F:79:25:F4:3C

            X509v3 Basic Constraints: 
                CA:TRUE
    Signature Algorithm: sha1WithRSAEncryption
         9e:a7:49:5f:a8:6a:b5:47:1b:48:c8:12:ca:e4:82:fd:fe:53:
         be:44:e7:e3:45:5d:8b:b6:c9:a9:4f:a3:45:0d:71:67:16:f9:
         9e:09:57:a3:b2:43:0a:b1:6b:46:17:78:51:bd:cc:4f:b0:ea:
         09:ba:ca:d0:3e:a9:47:9f:07:7d:c3:a7:c4:fd:40:7c:65:40:
         da:a4:48:be:3a:ec:ab:ab:a7:fb:b5:79:6f:8a:f3:8f:43:55:
         41:e7:2d:cd:eb:96:c5:86:7b:0e:64:25:9c:7b:4b:c3:18:65:
         ed:bc:03:b1:34:b9:af:2f:14:1b:e0:00:dd:9a:a4:70:3f:71:
         db:57:e4:82:be:2c:3b:61:bd:3d:00:4a:18:f9:3a:8e:14:f9:
         7f:af:9d:be:62:3c:44:22:68:3c:93:92:44:06:7c:ab:3c:24:
         7e:d1:30:fa:c1:7a:bd:51:18:81:85:86:2f:4e:e8:8b:2e:e7:
         4e:e1:a3:03:59:73:8a:39:73:3b:cb:36:a0:d5:be:9e:e0:97:
         e1:7d:4a:33:83:dd:83:85:29:3e:de:a8:13:dc:d5:18:71:a2:
         46:a2:8a:c1:fb:ed:94:35:cf:c9:35:d0:f9:60:f1:d1:89:b9:
         6b:02:e0:1e:1f:c7:6d:d6:8e:58:69:c5:ec:1f:f7:c0:7b:c8:
         38:0c:5f:ca
-----BEGIN CERTIFICATE-----
MIIEmjCCA4KgAwIBAgIBATANBgkqhkiG9w0BAQUFADCBkDELMAkGA1UEBhMCVVMx
EDAOBgNVBAgTB01vbnRhbmExEDAOBgNVBAcTB0JvemVtYW4xETAPBgNVBAoTCFNh
d3Rvb3RoMRMwEQYDVQQLEwpDb25zdWx0aW5nMRYwFAYDVQQDEw13d3cueWFzc2wu
Y29tMR0wGwYJKoZIhvcNAQkBFg5pbmZvQHlhc3NsLmNvbTAeFw0xNDA3MTEwMjE4
MDZaFw0xNzA0MDYwMjE4MDZaMIGUMQswCQYDVQQGEwJVUzEQMA4GA1UECAwHTW9u
dGFuYTEQMA4GA1UEBwwHQm96ZW1hbjERMA8GA1UECgwIU2F3dG9vdGgxEzARBgNV
BAsMCkNvbnN1bHRpbmcxGDAWBgNVBAMMD3d3dy53b2xmc3NsLmNvbTEfMB0GCSqG
SIb3DQEJARYQaW5mb0B3b2xmc3NsLmNvbTCCASIwDQYJKoZIhvcNAQEBBQADggEP
ADCCAQoCggEBAMCVCOFXQfJxbbfSRUEnAWXGRa7yvCQwuJXOL07W9hyIvHyf+6hn
f/5cnFF194rKB+c1L4/hvXvAL3yrZKgX/Mpde7rgIeVyLm8uhtiVc9qsG1O5Xz/X
GQ0lT+FjY1GLC2Q/rUO4pRxcNLOuAKBjxfZ/C1loeHOmjBipAm2vwxkBLrgQ48bM
QLRpo0YzaYduxLsXpvPo3a1zvHsvIbX9ZlEMvVSz4W1fHLwjc9EJA4kU0hC5ZMMq
0KGWSrzh1Bpbx6DAwWN4D0Q3MDKWgDIjlaF3uhPSl3PiXSXJag3DOWCktLBpQkIJ
6dgIvDMgs1gip6rrxOHmYYPF0pbf2dBPrdcCAwEAAaOB+DCB9TAdBgNVHQ4EFgQU
sxEyyZKYhOLJ+NA7bgNCyh8OjjwwgcUGA1UdIwSBvTCBuoAUJ45nEXTDJh0/7TNj
s6TYHTDl6NWhgZakgZMwgZAxCzAJBgNVBAYTAlVTMRAwDgYDVQQIEwdNb250YW5h
MRAwDgYDVQQHEwdCb3plbWFuMREwDwYDVQQKEwhTYXd0b290aDETMBEGA1UECxMK
Q29uc3VsdGluZzEWMBQGA1UEAxMNd3d3Lnlhc3NsLmNvbTEdMBsGCSqGSIb3DQEJ
ARYOaW5mb0B5YXNzbC5jb22CCQDp0KdfeSX0PDAMBgNVHRMEBTADAQH/MA0GCSqG
SIb3DQEBBQUAA4IBAQCep0lfqGq1RxtIyBLK5IL9/lO+ROfjRV2LtsmpT6NFDXFn
FvmeCVejskMKsWtGF3hRvcxPsOoJusrQPqlHnwd9w6fE/UB8ZUDapEi+Ouyrq6f7
tXlvivOPQ1VB5y3N65bFhnsOZCWce0vDGGXtvAOxNLmvLxQb4ADdmqRwP3HbV+SC
viw7Yb09AEoY+TqOFPl/r52+YjxEImg8k5JEBnyrPCR+0TD6wXq9URiBhYYvTuiL
LudO4aMDWXOKOXM7yzag1b6e4JfhfUozg92DhSk+3qgT3NUYcaJGoorB++2UNc/J
NdD5YPHRiblrAuAeH8dt1o5YacXsH/fAe8g4DF/K
-----END CERTIFICATE-----
