Certificate:
    Data:
        Version: 1 (0x0)
        Serial Number: 1 (0x1)
    Signature Algorithm: sha1WithRSAEncryption
        Issuer: C=US, ST=Montana, L=Bozeman, O=Sawtooth, OU=Consulting, CN=www.yassl.com/emailAddress=info@yassl.com
        Validity
            Not Before: Jul 11 01:57:22 2014 GMT
            Not After : Apr  6 01:57:22 2017 GMT
        Subject: C=US, ST=Montana, L=Bozeman, O=wolfSSL, OU=Programming, CN=www.wolfssl.com/emailAddress=info@wolfssl.com
        Subject Public Key Info:
            Public Key Algorithm: rsaEncryption
                Public-Key: (2048 bit)
                Modulus:
                    00:b2:21:dc:7d:14:97:63:df:34:85:d8:5f:1f:6f:
                    47:58:c8:fb:1d:ab:5c:10:39:70:e5:11:51:aa:77:
                    0e:64:c0:21:b5:41:af:b1:fd:5d:6c:a2:40:04:a1:
                    27:c3:b5:84:00:04:58:90:18:93:77:91:28:b9:02:
                    d2:4f:12:c0:a7:67:e1:8d:e5:7e:ac:2c:2d:73:25:
                    6b:a0:3f:a6:f5:da:c8:59:94:9f:f9:c7:53:27:fc:
                    2d:44:18:98:14:b2:5b:7c:ec:56:26:44:43:44:a1:
                    c3:3e:55:48:55:9d:e4:4f:e7:57:92:47:5d:1f:7b:
                    d1:0b:0a:fc:c7:f7:1f:f1:22:17:7a:eb:6e:a1:2a:
                    61:23:eb:e5:a9:21:3f:a7:6b:46:92:0c:10:ee:d1:
                    d9:53:5b:01:b2:3b:36:2e:58:a7:f7:6d:ae:00:87:
                    6c:7d:0c:19:33:f2:c8:8d:5f:d0:72:43:ae:46:ce:
                    1c:cc:5b:2e:cb:b8:4d:8a:d8:fc:aa:0d:b7:35:52:
                    70:b0:2f:2d:07:41:57:4e:ee:1d:ea:92:82:9e:18:
                    41:30:79:91:a4:8f:4a:1e:44:a9:b1:f5:73:62:45:
                    f2:86:9b:1d:be:d7:b5:89:c1:d0:69:a8:77:09:e9:
                    6e:12:65:f2:68:94:28:5b:81:6e:8e:40:f9:89:2b:
                    bc:d9
                Exponent: 65537 (0x10001)
    Signature Algorithm: sha1WithRSAEncryption
         6b:52:ea:9b:f3:ce:98:f6:45:12:4f:66:45:36:eb:44:3a:44:
         63:7c:50:ff:0e:d3:53:a6:7a:39:07:3b:1d:ab:af:20:28:f7:
         28:e2:2c:71:98:c9:0d:05:a6:95:b7:4f:5f:5c:fb:d4:77:bc:
         01:b3:5f:31:fc:ba:0d:8e:21:ef:44:30:35:76:85:9d:d4:5a:
         2a:ef:b6:0f:a0:98:0b:5d:e6:b2:43:23:f9:02:13:a1:3b:28:
         9a:58:66:85:f6:3f:45:96:a1:8e:34:df:75:e8:2c:6e:11:e2:
         a4:e1:2e:69:a2:9a:5b:16:40:8a:36:90:62:7d:e9:d2:7a:41:
         e8:8c:00:67:e9:95:a3:8a:59:bb:54:3b:70:6b:17:55:be:6d:
         3c:d5:aa:ea:0d:86:61:31:5f:f3:d1:b5:9a:c4:83:6c:30:12:
         1e:1b:5e:8a:81:90:36:84:76:de:86:ea:2c:e0:fb:e3:b1:f9:
         39:3b:e0:40:44:10:0e:be:b9:51:08:bb:7a:31:9b:64:ef:af:
         c0:36:4b:3f:90:01:8b:7f:66:0c:5f:cd:99:1f:6a:79:8d:34:
         d0:ea:33:33:62:f2:16:7d:52:e8:17:e7:3b:74:b8:e4:c8:d1:
         a3:09:f8:82:cd:bf:bd:06:af:e0:7f:47:fa:35:86:92:bf:a5:
         51:cc:43:a4
-----BEGIN CERTIFICATE-----
MIIDmjCCAoICAQEwDQYJKoZIhvcNAQEFBQAwgZAxCzAJBgNVBAYTAlVTMRAwDgYD
VQQIEwdNb250YW5hMRAwDgYDVQQHEwdCb3plbWFuMREwDwYDVQQKEwhTYXd0b290
aDETMBEGA1UECxMKQ29uc3VsdGluZzEWMBQGA1UEAxMNd3d3Lnlhc3NsLmNvbTEd
MBsGCSqGSIb3DQEJARYOaW5mb0B5YXNzbC5jb20wHhcNMTQwNzExMDE1NzIyWhcN
MTcwNDA2MDE1NzIyWjCBlDELMAkGA1UEBhMCVVMxEDAOBgNVBAgMB01vbnRhbmEx
EDAOBgNVBAcMB0JvemVtYW4xEDAOBgNVBAoMB3dvbGZTU0wxFDASBgNVBAsMC1By
b2dyYW1taW5nMRgwFgYDVQQDDA93d3cud29sZnNzbC5jb20xHzAdBgkqhkiG9w0B
CQEWEGluZm9Ad29sZnNzbC5jb20wggEiMA0GCSqGSIb3DQEBAQUAA4IBDwAwggEK
AoIBAQCyIdx9FJdj3zSF2F8fb0dYyPsdq1wQOXDlEVGqdw5kwCG1Qa+x/V1sokAE
oSfDtYQABFiQGJN3kSi5AtJPEsCnZ+GN5X6sLC1zJWugP6b12shZlJ/5x1Mn/C1E
GJgUslt87FYmRENEocM+VUhVneRP51eSR10fe9ELCvzH9x/xIhd6626hKmEj6+Wp
IT+na0aSDBDu0dlTWwGyOzYuWKf3ba4Ah2x9DBkz8siNX9ByQ65GzhzMWy7LuE2K
2PyqDbc1UnCwLy0HQVdO7h3qkoKeGEEweZGkj0oeRKmx9XNiRfKGmx2+17WJwdBp
qHcJ6W4SZfJolChbgW6OQPmJK7zZAgMBAAEwDQYJKoZIhvcNAQEFBQADggEBAGtS
6pvzzpj2RRJPZkU260Q6RGN8UP8O01OmejkHOx2rryAo9yjiLHGYyQ0FppW3T19c
+9R3vAGzXzH8ug2OIe9EMDV2hZ3UWirvtg+gmAtd5rJDI/kCE6E7KJpYZoX2P0WW
oY4033XoLG4R4qThLmmimlsWQIo2kGJ96dJ6QeiMAGfplaOKWbtUO3BrF1W+bTzV
quoNhmExX/PRtZrEg2wwEh4bXoqBkDaEdt6G6izg++Ox+Tk74EBEEA6+uVEIu3ox
m2Tvr8A2Sz+QAYt/ZgxfzZkfanmNNNDqMzNi8hZ9UugX5zt0uOTI0aMJ+ILNv70G
r+B/R/o1hpK/pVHMQ6Q=
-----END CERTIFICATE-----
