Certificate:
    Data:
        Version: 3 (0x2)
        Serial Number: 1 (0x1)
    Signature Algorithm: sha256WithRSAEncryption
        Issuer: C=US, ST=Montana, L=Bozeman, O=Sawtooth, OU=Consulting, CN=www.wolfssl.com/emailAddress=info@wolfssl.com
        Validity
            Not Before: Jul 16 17:52:01 2014 GMT
            Not After : Apr 11 17:52:01 2017 GMT
        Subject: C=US, ST=Montana, L=Bozeman, O=wolfSSL, OU=Support, CN=www.wolfssl.com/emailAddress=info@wolfssl.com
        Subject Public Key Info:
            Public Key Algorithm: rsaEncryption
                Public-Key: (2048 bit)
                Modulus:
                    00:c0:95:08:e1:57:41:f2:71:6d:b7:d2:45:41:27:
                    01:65:c6:45:ae:f2:bc:24:30:b8:95:ce:2f:4e:d6:
                    f6:1c:88:bc:7c:9f:fb:a8:67:7f:fe:5c:9c:51:75:
                    f7:8a:ca:07:e7:35:2f:8f:e1:bd:7b:c0:2f:7c:ab:
                    64:a8:17:fc:ca:5d:7b:ba:e0:21:e5:72:2e:6f:2e:
                    86:d8:95:73:da:ac:1b:53:b9:5f:3f:d7:19:0d:25:
                    4f:e1:63:63:51:8b:0b:64:3f:ad:43:b8:a5:1c:5c:
                    34:b3:ae:00:a0:63:c5:f6:7f:0b:59:68:78:73:a6:
                    8c:18:a9:02:6d:af:c3:19:01:2e:b8:10:e3:c6:cc:
                    40:b4:69:a3:46:33:69:87:6e:c4:bb:17:a6:f3:e8:
                    dd:ad:73:bc:7b:2f:21:b5:fd:66:51:0c:bd:54:b3:
                    e1:6d:5f:1c:bc:23:73:d1:09:03:89:14:d2:10:b9:
                    64:c3:2a:d0:a1:96:4a:bc:e1:d4:1a:5b:c7:a0:c0:
                    c1:63:78:0f:44:37:30:32:96:80:32:23:95:a1:77:
                    ba:13:d2:97:73:e2:5d:25:c9:6a:0d:c3:39:60:a4:
                    b4:b0:69:42:42:09:e9:d8:08:bc:33:20:b3:58:22:
                    a7:aa:eb:c4:e1:e6:61:83:c5:d2:96:df:d9:d0:4f:
                    ad:d7
                Exponent: 65537 (0x10001)
        X509v3 extensions:
            X509v3 Subject Key Identifier: 
                B3:11:32:C9:92:98:84:E2:C9:F8:D0:3B:6E:03:42:CA:1F:0E:8E:3C
            X509v3 Authority Key Identifier: 
                keyid:27:8E:67:11:74:C3:26:1D:3F:ED:33:63:B3:A4:D8:1D:30:E5:E8:D5
                DirName:/C=US/ST=Montana/L=Bozeman/O=Sawtooth/OU=Consulting/CN=www.wolfssl.com/emailAddress=info@wolfssl.com
                serial:F2:70:01:D4:28:AF:7C:AB

            X509v3 Basic Constraints: 
                CA:TRUE
    Signature Algorithm: sha256WithRSAEncryption
         7b:76:ae:33:75:a3:d1:a8:ca:a8:34:f0:52:4f:79:e7:cf:74:
         07:f4:61:ee:a2:a9:e4:35:0d:19:d9:5a:66:ee:ef:f5:68:42:
         e0:e5:54:8a:07:7f:de:2b:17:f6:09:a0:d9:24:a9:5c:5b:31:
         ee:c8:66:25:e0:6e:01:3c:29:c8:31:a8:0d:31:1c:f3:ae:5f:
         6f:e6:58:73:d6:94:64:a4:92:e0:97:0a:3b:a0:0e:a9:2b:60:
         d5:26:72:15:2c:48:f4:09:fc:47:9d:e7:d3:d6:27:82:9b:e7:
         f5:a4:88:5b:b3:55:a6:dd:6b:36:8a:5c:d4:e7:d7:8f:5f:84:
         29:a0:14:e8:16:a8:b3:1e:7d:d7:d9:3c:2b:da:41:ec:d6:6a:
         64:94:4e:bf:09:96:11:b3:18:cc:7e:f9:4b:38:ce:b9:ec:ef:
         7b:ac:59:0e:4d:7d:1a:c9:7a:18:78:1d:54:d8:49:5f:d0:78:
         54:f8:f8:b1:3c:d4:be:b9:c1:4e:72:5a:84:c7:6d:e9:a9:e3:
         72:eb:11:5b:08:6d:ac:b5:4e:e9:c7:36:a7:9b:3e:00:f7:d4:
         b7:0d:cd:ff:8b:f1:bf:1b:2a:8a:ac:fd:ff:13:06:25:0d:f9:
         89:d2:3b:6e:23:6f:75:84:cd:05:c7:89:21:3d:4a:92:09:d9:
         09:19:93:1e
-----BEGIN CERTIFICATE-----
MIIEnjCCA4agAwIBAgIBATANBgkqhkiG9w0BAQsFADCBlDELMAkGA1UEBhMCVVMx
EDAOBgNVBAgMB01vbnRhbmExEDAOBgNVBAcMB0JvemVtYW4xETAPBgNVBAoMCFNh
d3Rvb3RoMRMwEQYDVQQLDApDb25zdWx0aW5nMRgwFgYDVQQDDA93d3cud29sZnNz
bC5jb20xHzAdBgkqhkiG9w0BCQEWEGluZm9Ad29sZnNzbC5jb20wHhcNMTQwNzE2
MTc1MjAxWhcNMTcwNDExMTc1MjAxWjCBkDELMAkGA1UEBhMCVVMxEDAOBgNVBAgM
B01vbnRhbmExEDAOBgNVBAcMB0JvemVtYW4xEDAOBgNVBAoMB3dvbGZTU0wxEDAO
BgNVBAsMB1N1cHBvcnQxGDAWBgNVBAMMD3d3dy53b2xmc3NsLmNvbTEfMB0GCSqG
SIb3DQEJARYQaW5mb0B3b2xmc3NsLmNvbTCCASIwDQYJKoZIhvcNAQEBBQADggEP
ADCCAQoCggEBAMCVCOFXQfJxbbfSRUEnAWXGRa7yvCQwuJXOL07W9hyIvHyf+6hn
f/5cnFF194rKB+c1L4/hvXvAL3yrZKgX/Mpde7rgIeVyLm8uhtiVc9qsG1O5Xz/X
GQ0lT+FjY1GLC2Q/rUO4pRxcNLOuAKBjxfZ/C1loeHOmjBipAm2vwxkBLrgQ48bM
QLRpo0YzaYduxLsXpvPo3a1zvHsvIbX9ZlEMvVSz4W1fHLwjc9EJA4kU0hC5ZMMq
0KGWSrzh1Bpbx6DAwWN4D0Q3MDKWgDIjlaF3uhPSl3PiXSXJag3DOWCktLBpQkIJ
6dgIvDMgs1gip6rrxOHmYYPF0pbf2dBPrdcCAwEAAaOB/DCB+TAdBgNVHQ4EFgQU
sxEyyZKYhOLJ+NA7bgNCyh8OjjwwgckGA1UdIwSBwTCBvoAUJ45nEXTDJh0/7TNj
s6TYHTDl6NWhgZqkgZcwgZQxCzAJBgNVBAYTAlVTMRAwDgYDVQQIDAdNb250YW5h
MRAwDgYDVQQHDAdCb3plbWFuMREwDwYDVQQKDAhTYXd0b290aDETMBEGA1UECwwK
Q29uc3VsdGluZzEYMBYGA1UEAwwPd3d3LndvbGZzc2wuY29tMR8wHQYJKoZIhvcN
AQkBFhBpbmZvQHdvbGZzc2wuY29tggkA8nAB1CivfKswDAYDVR0TBAUwAwEB/zAN
BgkqhkiG9w0BAQsFAAOCAQEAe3auM3Wj0ajKqDTwUk955890B/Rh7qKp5DUNGdla
Zu7v9WhC4OVUigd/3isX9gmg2SSpXFsx7shmJeBuATwpyDGoDTEc865fb+ZYc9aU
ZKSS4JcKO6AOqStg1SZyFSxI9An8R53n09Yngpvn9aSIW7NVpt1rNopc1OfXj1+E
KaAU6Baosx5919k8K9pB7NZqZJROvwmWEbMYzH75SzjOuezve6xZDk19Gsl6GHgd
VNhJX9B4VPj4sTzUvrnBTnJahMdt6anjcusRWwhtrLVO6cc2p5s+APfUtw3N/4vx
vxsqiqz9/xMGJQ35idI7biNvdYTNBceJIT1KkgnZCRmTHg==
-----END CERTIFICATE-----
Certificate:
    Data:
        Version: 3 (0x2)
        Serial Number:
            f2:70:01:d4:28:af:7c:ab
    Signature Algorithm: sha256WithRSAEncryption
        Issuer: C=US, ST=Montana, L=Bozeman, O=Sawtooth, OU=Consulting, CN=www.wolfssl.com/emailAddress=info@wolfssl.com
        Validity
            Not Before: Jul 16 17:52:01 2014 GMT
            Not After : Apr 11 17:52:01 2017 GMT
        Subject: C=US, ST=Montana, L=Bozeman, O=Sawtooth, OU=Consulting, CN=www.wolfssl.com/emailAddress=info@wolfssl.com
        Subject Public Key Info:
            Public Key Algorithm: rsaEncryption
                Public-Key: (2048 bit)
                Modulus:
                    00:bf:0c:ca:2d:14:b2:1e:84:42:5b:cd:38:1f:4a:
                    f2:4d:75:10:f1:b6:35:9f:df:ca:7d:03:98:d3:ac:
                    de:03:66:ee:2a:f1:d8:b0:7d:6e:07:54:0b:10:98:
                    21:4d:80:cb:12:20:e7:cc:4f:de:45:7d:c9:72:77:
                    32:ea:ca:90:bb:69:52:10:03:2f:a8:f3:95:c5:f1:
                    8b:62:56:1b:ef:67:6f:a4:10:41:95:ad:0a:9b:e3:
                    a5:c0:b0:d2:70:76:50:30:5b:a8:e8:08:2c:7c:ed:
                    a7:a2:7a:8d:38:29:1c:ac:c7:ed:f2:7c:95:b0:95:
                    82:7d:49:5c:38:cd:77:25:ef:bd:80:75:53:94:3c:
                    3d:ca:63:5b:9f:15:b5:d3:1d:13:2f:19:d1:3c:db:
                    76:3a:cc:b8:7d:c9:e5:c2:d7:da:40:6f:d8:21:dc:
                    73:1b:42:2d:53:9c:fe:1a:fc:7d:ab:7a:36:3f:98:
                    de:84:7c:05:67:ce:6a:14:38:87:a9:f1:8c:b5:68:
                    cb:68:7f:71:20:2b:f5:a0:63:f5:56:2f:a3:26:d2:
                    b7:6f:b1:5a:17:d7:38:99:08:fe:93:58:6f:fe:c3:
                    13:49:08:16:0b:a7:4d:67:00:52:31:67:23:4e:98:
                    ed:51:45:1d:b9:04:d9:0b:ec:d8:28:b3:4b:bd:ed:
                    36:79
                Exponent: 65537 (0x10001)
        X509v3 extensions:
            X509v3 Subject Key Identifier: 
                27:8E:67:11:74:C3:26:1D:3F:ED:33:63:B3:A4:D8:1D:30:E5:E8:D5
            X509v3 Authority Key Identifier: 
                keyid:27:8E:67:11:74:C3:26:1D:3F:ED:33:63:B3:A4:D8:1D:30:E5:E8:D5
                DirName:/C=US/ST=Montana/L=Bozeman/O=Sawtooth/OU=Consulting/CN=www.wolfssl.com/emailAddress=info@wolfssl.com
                serial:F2:70:01:D4:28:AF:7C:AB

            X509v3 Basic Constraints: 
                CA:TRUE
    Signature Algorithm: sha256WithRSAEncryption
         56:93:ea:a3:7a:75:db:b0:aa:22:cd:62:a4:51:49:bc:5b:45:
         ff:a6:98:2b:57:dd:24:b9:f0:9a:6c:46:15:fc:99:c8:bf:fc:
         e6:4f:f9:60:68:03:8a:6b:4d:36:e4:a6:42:41:9e:6c:7e:b9:
         02:b0:c6:18:7d:1c:e5:bb:ff:9d:ef:8d:36:4b:14:81:c8:78:
         6b:3f:4d:96:39:04:ec:93:2f:f2:dd:13:2a:c4:54:08:7a:c2:
         05:8b:79:d8:6a:2a:26:aa:41:ac:ab:b2:8b:1c:22:00:85:d9:
         cf:78:ab:16:60:17:29:fb:31:a5:06:d1:33:b2:43:41:9a:bc:
         fc:04:7a:7c:fd:aa:0b:60:f5:13:47:4f:86:88:35:1d:aa:c4:
         71:cc:e4:3a:10:1e:71:62:6b:fb:ac:91:fa:d7:32:e9:3d:41:
         ae:c3:1a:50:c0:20:51:a6:c1:3b:fb:09:59:a0:c7:39:d0:f0:
         ac:b7:aa:3e:81:b7:16:86:53:b7:be:b2:b0:88:ec:b6:79:32:
         18:dc:7b:d2:55:5b:fa:94:7c:aa:84:7b:a9:16:eb:16:b7:85:
         72:fd:92:12:94:70:7a:84:3b:68:be:93:28:eb:35:0a:75:3c:
         38:c1:2a:08:10:5f:35:dc:f7:be:6e:1f:00:f2:09:39:57:2f:
         72:df:91:81
-----BEGIN CERTIFICATE-----
MIIEqjCCA5KgAwIBAgIJAPJwAdQor3yrMA0GCSqGSIb3DQEBCwUAMIGUMQswCQYD
VQQGEwJVUzEQMA4GA1UECAwHTW9udGFuYTEQMA4GA1UEBwwHQm96ZW1hbjERMA8G
A1UECgwIU2F3dG9vdGgxEzARBgNVBAsMCkNvbnN1bHRpbmcxGDAWBgNVBAMMD3d3
dy53b2xmc3NsLmNvbTEfMB0GCSqGSIb3DQEJARYQaW5mb0B3b2xmc3NsLmNvbTAe
Fw0xNDA3MTYxNzUyMDFaFw0xNzA0MTExNzUyMDFaMIGUMQswCQYDVQQGEwJVUzEQ
MA4GA1UECAwHTW9udGFuYTEQMA4GA1UEBwwHQm96ZW1hbjERMA8GA1UECgwIU2F3
dG9vdGgxEzARBgNVBAsMCkNvbnN1bHRpbmcxGDAWBgNVBAMMD3d3dy53b2xmc3Ns
LmNvbTEfMB0GCSqGSIb3DQEJARYQaW5mb0B3b2xmc3NsLmNvbTCCASIwDQYJKoZI
hvcNAQEBBQADggEPADCCAQoCggEBAL8Myi0Ush6EQlvNOB9K8k11EPG2NZ/fyn0D
mNOs3gNm7irx2LB9bgdUCxCYIU2AyxIg58xP3kV9yXJ3MurKkLtpUhADL6jzlcXx
i2JWG+9nb6QQQZWtCpvjpcCw0nB2UDBbqOgILHztp6J6jTgpHKzH7fJ8lbCVgn1J
XDjNdyXvvYB1U5Q8PcpjW58VtdMdEy8Z0TzbdjrMuH3J5cLX2kBv2CHccxtCLVOc
/hr8fat6Nj+Y3oR8BWfOahQ4h6nxjLVoy2h/cSAr9aBj9VYvoybSt2+xWhfXOJkI
/pNYb/7DE0kIFgunTWcAUjFnI06Y7VFFHbkE2Qvs2CizS73tNnkCAwEAAaOB/DCB
+TAdBgNVHQ4EFgQUJ45nEXTDJh0/7TNjs6TYHTDl6NUwgckGA1UdIwSBwTCBvoAU
J45nEXTDJh0/7TNjs6TYHTDl6NWhgZqkgZcwgZQxCzAJBgNVBAYTAlVTMRAwDgYD
VQQIDAdNb250YW5hMRAwDgYDVQQHDAdCb3plbWFuMREwDwYDVQQKDAhTYXd0b290
aDETMBEGA1UECwwKQ29uc3VsdGluZzEYMBYGA1UEAwwPd3d3LndvbGZzc2wuY29t
MR8wHQYJKoZIhvcNAQkBFhBpbmZvQHdvbGZzc2wuY29tggkA8nAB1CivfKswDAYD
VR0TBAUwAwEB/zANBgkqhkiG9w0BAQsFAAOCAQEAVpPqo3p127CqIs1ipFFJvFtF
/6aYK1fdJLnwmmxGFfyZyL/85k/5YGgDimtNNuSmQkGebH65ArDGGH0c5bv/ne+N
NksUgch4az9NljkE7JMv8t0TKsRUCHrCBYt52GoqJqpBrKuyixwiAIXZz3irFmAX
KfsxpQbRM7JDQZq8/AR6fP2qC2D1E0dPhog1HarEcczkOhAecWJr+6yR+tcy6T1B
rsMaUMAgUabBO/sJWaDHOdDwrLeqPoG3FoZTt76ysIjstnkyGNx70lVb+pR8qoR7
qRbrFreFcv2SEpRweoQ7aL6TKOs1CnU8OMEqCBBfNdz3vm4fAPIJOVcvct+RgQ==
-----END CERTIFICATE-----
