Certificate:
    Data:
        Version: 3 (0x2)
        Serial Number: 1 (0x1)
    Signature Algorithm: sha256WithRSAEncryption
        Issuer: C=US, ST=Montana, L=Bozeman, O=Sawtooth, OU=Consulting, CN=www.wolfssl.com/emailAddress=info@wolfssl.com
        Validity
            Not Before: Jul 11 15:08:23 2014 GMT
            Not After : Apr  6 15:08:23 2017 GMT
        Subject: C=US, ST=Montana, L=Bozeman, O=wolfSSL, OU=Support, CN=www.wolfssl.com/emailAddress=info@wolfssl.com
        Subject Public Key Info:
            Public Key Algorithm: rsaEncryption
                Public-Key: (2048 bit)
                Modulus:
                    00:c0:95:08:e1:57:41:f2:71:6d:b7:d2:45:41:27:
                    01:65:c6:45:ae:f2:bc:24:30:b8:95:ce:2f:4e:d6:
                    f6:1c:88:bc:7c:9f:fb:a8:67:7f:fe:5c:9c:51:75:
                    f7:8a:ca:07:e7:35:2f:8f:e1:bd:7b:c0:2f:7c:ab:
                    64:a8:17:fc:ca:5d:7b:ba:e0:21:e5:72:2e:6f:2e:
                    86:d8:95:73:da:ac:1b:53:b9:5f:3f:d7:19:0d:25:
                    4f:e1:63:63:51:8b:0b:64:3f:ad:43:b8:a5:1c:5c:
                    34:b3:ae:00:a0:63:c5:f6:7f:0b:59:68:78:73:a6:
                    8c:18:a9:02:6d:af:c3:19:01:2e:b8:10:e3:c6:cc:
                    40:b4:69:a3:46:33:69:87:6e:c4:bb:17:a6:f3:e8:
                    dd:ad:73:bc:7b:2f:21:b5:fd:66:51:0c:bd:54:b3:
                    e1:6d:5f:1c:bc:23:73:d1:09:03:89:14:d2:10:b9:
                    64:c3:2a:d0:a1:96:4a:bc:e1:d4:1a:5b:c7:a0:c0:
                    c1:63:78:0f:44:37:30:32:96:80:32:23:95:a1:77:
                    ba:13:d2:97:73:e2:5d:25:c9:6a:0d:c3:39:60:a4:
                    b4:b0:69:42:42:09:e9:d8:08:bc:33:20:b3:58:22:
                    a7:aa:eb:c4:e1:e6:61:83:c5:d2:96:df:d9:d0:4f:
                    ad:d7
                Exponent: 65537 (0x10001)
        X509v3 extensions:
            X509v3 Subject Key Identifier: 
                B3:11:32:C9:92:98:84:E2:C9:F8:D0:3B:6E:03:42:CA:1F:0E:8E:3C
            X509v3 Authority Key Identifier: 
                keyid:27:8E:67:11:74:C3:26:1D:3F:ED:33:63:B3:A4:D8:1D:30:E5:E8:D5
                DirName:/C=US/ST=Montana/L=Bozeman/O=Sawtooth/OU=Consulting/CN=www.wolfssl.com/emailAddress=info@wolfssl.com
                serial:9A:41:47:CD:A1:14:62:8C

            X509v3 Basic Constraints: 
                CA:TRUE
    Signature Algorithm: sha256WithRSAEncryption
         74:19:05:57:f0:67:a4:25:ac:07:75:e8:fe:44:8f:c5:dd:72:
         a6:46:23:c5:c4:74:84:bd:a8:df:ca:5f:08:8c:44:b7:9d:fb:
         75:4c:d3:a0:e6:f7:c1:9d:aa:49:59:fa:6a:97:51:21:91:75:
         10:31:bc:85:19:1e:21:01:5f:77:a0:f4:c0:a3:31:f3:e8:97:
         ae:4e:03:96:33:fc:16:32:62:c0:01:7f:30:b5:19:cb:e6:1f:
         51:d3:88:bd:b1:54:d9:99:5b:d6:d5:fc:49:7f:3e:15:2a:2d:
         79:30:4c:e2:24:1b:1b:c7:f3:30:aa:a5:6f:81:d6:1c:ee:7d:
         1c:b4:ad:ec:97:16:8e:e5:70:ec:48:19:ed:0c:6e:e3:e9:fa:
         dd:d9:e3:99:98:4d:f4:a0:0e:89:b3:ae:40:17:7a:10:54:97:
         ac:f8:39:8d:8b:0b:a2:b9:b5:39:ab:e8:dd:9e:36:65:28:83:
         19:16:27:e7:a7:2b:74:67:51:6b:f6:40:df:e0:4a:12:d2:4d:
         2b:6f:ce:f4:45:58:d1:f9:05:11:87:32:f3:2f:7e:c4:83:30:
         87:ad:0d:19:53:51:18:dc:74:e8:5c:1e:c5:5d:0a:3c:07:7c:
         ad:c2:56:fb:41:80:9b:3c:ee:50:78:8f:cc:c7:a2:cb:96:10:
         55:5f:b8:70
-----BEGIN CERTIFICATE-----
MIIEnjCCA4agAwIBAgIBATANBgkqhkiG9w0BAQsFADCBlDELMAkGA1UEBhMCVVMx
EDAOBgNVBAgMB01vbnRhbmExEDAOBgNVBAcMB0JvemVtYW4xETAPBgNVBAoMCFNh
d3Rvb3RoMRMwEQYDVQQLDApDb25zdWx0aW5nMRgwFgYDVQQDDA93d3cud29sZnNz
bC5jb20xHzAdBgkqhkiG9w0BCQEWEGluZm9Ad29sZnNzbC5jb20wHhcNMTQwNzEx
MTUwODIzWhcNMTcwNDA2MTUwODIzWjCBkDELMAkGA1UEBhMCVVMxEDAOBgNVBAgM
B01vbnRhbmExEDAOBgNVBAcMB0JvemVtYW4xEDAOBgNVBAoMB3dvbGZTU0wxEDAO
BgNVBAsMB1N1cHBvcnQxGDAWBgNVBAMMD3d3dy53b2xmc3NsLmNvbTEfMB0GCSqG
SIb3DQEJARYQaW5mb0B3b2xmc3NsLmNvbTCCASIwDQYJKoZIhvcNAQEBBQADggEP
ADCCAQoCggEBAMCVCOFXQfJxbbfSRUEnAWXGRa7yvCQwuJXOL07W9hyIvHyf+6hn
f/5cnFF194rKB+c1L4/hvXvAL3yrZKgX/Mpde7rgIeVyLm8uhtiVc9qsG1O5Xz/X
GQ0lT+FjY1GLC2Q/rUO4pRxcNLOuAKBjxfZ/C1loeHOmjBipAm2vwxkBLrgQ48bM
QLRpo0YzaYduxLsXpvPo3a1zvHsvIbX9ZlEMvVSz4W1fHLwjc9EJA4kU0hC5ZMMq
0KGWSrzh1Bpbx6DAwWN4D0Q3MDKWgDIjlaF3uhPSl3PiXSXJag3DOWCktLBpQkIJ
6dgIvDMgs1gip6rrxOHmYYPF0pbf2dBPrdcCAwEAAaOB/DCB+TAdBgNVHQ4EFgQU
sxEyyZKYhOLJ+NA7bgNCyh8OjjwwgckGA1UdIwSBwTCBvoAUJ45nEXTDJh0/7TNj
s6TYHTDl6NWhgZqkgZcwgZQxCzAJBgNVBAYTAlVTMRAwDgYDVQQIDAdNb250YW5h
MRAwDgYDVQQHDAdCb3plbWFuMREwDwYDVQQKDAhTYXd0b290aDETMBEGA1UECwwK
Q29uc3VsdGluZzEYMBYGA1UEAwwPd3d3LndvbGZzc2wuY29tMR8wHQYJKoZIhvcN
AQkBFhBpbmZvQHdvbGZzc2wuY29tggkAmkFHzaEUYowwDAYDVR0TBAUwAwEB/zAN
BgkqhkiG9w0BAQsFAAOCAQEAdBkFV/BnpCWsB3Xo/kSPxd1ypkYjxcR0hL2o38pf
CIxEt537dUzToOb3wZ2qSVn6apdRIZF1EDG8hRkeIQFfd6D0wKMx8+iXrk4DljP8
FjJiwAF/MLUZy+YfUdOIvbFU2Zlb1tX8SX8+FSoteTBM4iQbG8fzMKqlb4HWHO59
HLSt7JcWjuVw7EgZ7Qxu4+n63dnjmZhN9KAOibOuQBd6EFSXrPg5jYsLorm1Oavo
3Z42ZSiDGRYn56crdGdRa/ZA3+BKEtJNK2/O9EVY0fkFEYcy8y9+xIMwh60NGVNR
GNx06FwexV0KPAd8rcJW+0GAmzzuUHiPzMeiy5YQVV+4cA==
-----END CERTIFICATE-----
Certificate:
    Data:
        Version: 3 (0x2)
        Serial Number:
            9a:41:47:cd:a1:14:62:8c
    Signature Algorithm: sha1WithRSAEncryption
        Issuer: C=US, ST=Montana, L=Bozeman, O=Sawtooth, OU=Consulting, CN=www.wolfssl.com/emailAddress=info@wolfssl.com
        Validity
            Not Before: Jul 11 03:20:08 2014 GMT
            Not After : Apr  6 03:20:08 2017 GMT
        Subject: C=US, ST=Montana, L=Bozeman, O=Sawtooth, OU=Consulting, CN=www.wolfssl.com/emailAddress=info@wolfssl.com
        Subject Public Key Info:
            Public Key Algorithm: rsaEncryption
                Public-Key: (2048 bit)
                Modulus:
                    00:bf:0c:ca:2d:14:b2:1e:84:42:5b:cd:38:1f:4a:
                    f2:4d:75:10:f1:b6:35:9f:df:ca:7d:03:98:d3:ac:
                    de:03:66:ee:2a:f1:d8:b0:7d:6e:07:54:0b:10:98:
                    21:4d:80:cb:12:20:e7:cc:4f:de:45:7d:c9:72:77:
                    32:ea:ca:90:bb:69:52:10:03:2f:a8:f3:95:c5:f1:
                    8b:62:56:1b:ef:67:6f:a4:10:41:95:ad:0a:9b:e3:
                    a5:c0:b0:d2:70:76:50:30:5b:a8:e8:08:2c:7c:ed:
                    a7:a2:7a:8d:38:29:1c:ac:c7:ed:f2:7c:95:b0:95:
                    82:7d:49:5c:38:cd:77:25:ef:bd:80:75:53:94:3c:
                    3d:ca:63:5b:9f:15:b5:d3:1d:13:2f:19:d1:3c:db:
                    76:3a:cc:b8:7d:c9:e5:c2:d7:da:40:6f:d8:21:dc:
                    73:1b:42:2d:53:9c:fe:1a:fc:7d:ab:7a:36:3f:98:
                    de:84:7c:05:67:ce:6a:14:38:87:a9:f1:8c:b5:68:
                    cb:68:7f:71:20:2b:f5:a0:63:f5:56:2f:a3:26:d2:
                    b7:6f:b1:5a:17:d7:38:99:08:fe:93:58:6f:fe:c3:
                    13:49:08:16:0b:a7:4d:67:00:52:31:67:23:4e:98:
                    ed:51:45:1d:b9:04:d9:0b:ec:d8:28:b3:4b:bd:ed:
                    36:79
                Exponent: 65537 (0x10001)
        X509v3 extensions:
            X509v3 Subject Key Identifier: 
                27:8E:67:11:74:C3:26:1D:3F:ED:33:63:B3:A4:D8:1D:30:E5:E8:D5
            X509v3 Authority Key Identifier: 
                keyid:27:8E:67:11:74:C3:26:1D:3F:ED:33:63:B3:A4:D8:1D:30:E5:E8:D5
                DirName:/C=US/ST=Montana/L=Bozeman/O=Sawtooth/OU=Consulting/CN=www.wolfssl.com/emailAddress=info@wolfssl.com
                serial:9A:41:47:CD:A1:14:62:8C

            X509v3 Basic Constraints: 
                CA:TRUE
    Signature Algorithm: sha1WithRSAEncryption
         79:78:0c:6d:79:88:91:fc:3a:15:9c:f9:27:62:16:f0:21:1f:
         fa:7d:3f:a2:a8:32:1e:f7:f2:11:a9:74:16:74:5e:dc:18:ca:
         f0:00:2a:d5:03:06:26:30:f1:47:83:fd:32:6e:fc:ed:aa:4f:
         7d:0c:63:60:31:2f:7c:0c:bf:99:66:87:ed:27:08:86:2d:c4:
         33:e8:98:23:1c:fe:a3:db:9a:49:4e:fc:5a:42:ef:71:c3:3f:
         ad:dc:4a:a8:d2:a3:1d:09:ac:33:04:7b:86:f3:6d:00:59:a3:
         c8:db:d1:3c:73:f6:0e:90:d6:5e:49:e0:bf:36:63:08:7b:a5:
         b0:8f:35:3b:56:8c:11:35:49:04:1c:d0:e7:ba:56:c5:0d:0a:
         91:8d:d6:b7:62:19:34:12:52:4c:d2:6d:7c:c5:3d:0f:18:81:
         54:cb:f6:3c:e5:84:d2:d6:71:15:ec:1a:34:0b:f0:a0:21:74:
         43:c8:a3:b0:df:d9:67:da:e2:ad:93:48:f8:a0:87:bd:79:14:
         e0:62:0a:df:f7:31:2e:31:7b:d1:32:2a:0a:fe:5d:14:ef:d9:
         64:50:e4:83:91:bc:70:0d:d7:88:8d:d9:bc:84:0e:c5:1a:b3:
         bf:64:02:4e:51:91:a4:a2:85:15:83:af:f0:5b:9b:28:49:5f:
         b2:b3:03:d8
-----BEGIN CERTIFICATE-----
MIIEqjCCA5KgAwIBAgIJAJpBR82hFGKMMA0GCSqGSIb3DQEBBQUAMIGUMQswCQYD
VQQGEwJVUzEQMA4GA1UECAwHTW9udGFuYTEQMA4GA1UEBwwHQm96ZW1hbjERMA8G
A1UECgwIU2F3dG9vdGgxEzARBgNVBAsMCkNvbnN1bHRpbmcxGDAWBgNVBAMMD3d3
dy53b2xmc3NsLmNvbTEfMB0GCSqGSIb3DQEJARYQaW5mb0B3b2xmc3NsLmNvbTAe
Fw0xNDA3MTEwMzIwMDhaFw0xNzA0MDYwMzIwMDhaMIGUMQswCQYDVQQGEwJVUzEQ
MA4GA1UECAwHTW9udGFuYTEQMA4GA1UEBwwHQm96ZW1hbjERMA8GA1UECgwIU2F3
dG9vdGgxEzARBgNVBAsMCkNvbnN1bHRpbmcxGDAWBgNVBAMMD3d3dy53b2xmc3Ns
LmNvbTEfMB0GCSqGSIb3DQEJARYQaW5mb0B3b2xmc3NsLmNvbTCCASIwDQYJKoZI
hvcNAQEBBQADggEPADCCAQoCggEBAL8Myi0Ush6EQlvNOB9K8k11EPG2NZ/fyn0D
mNOs3gNm7irx2LB9bgdUCxCYIU2AyxIg58xP3kV9yXJ3MurKkLtpUhADL6jzlcXx
i2JWG+9nb6QQQZWtCpvjpcCw0nB2UDBbqOgILHztp6J6jTgpHKzH7fJ8lbCVgn1J
XDjNdyXvvYB1U5Q8PcpjW58VtdMdEy8Z0TzbdjrMuH3J5cLX2kBv2CHccxtCLVOc
/hr8fat6Nj+Y3oR8BWfOahQ4h6nxjLVoy2h/cSAr9aBj9VYvoybSt2+xWhfXOJkI
/pNYb/7DE0kIFgunTWcAUjFnI06Y7VFFHbkE2Qvs2CizS73tNnkCAwEAAaOB/DCB
+TAdBgNVHQ4EFgQUJ45nEXTDJh0/7TNjs6TYHTDl6NUwgckGA1UdIwSBwTCBvoAU
J45nEXTDJh0/7TNjs6TYHTDl6NWhgZqkgZcwgZQxCzAJBgNVBAYTAlVTMRAwDgYD
VQQIDAdNb250YW5hMRAwDgYDVQQHDAdCb3plbWFuMREwDwYDVQQKDAhTYXd0b290
aDETMBEGA1UECwwKQ29uc3VsdGluZzEYMBYGA1UEAwwPd3d3LndvbGZzc2wuY29t
MR8wHQYJKoZIhvcNAQkBFhBpbmZvQHdvbGZzc2wuY29tggkAmkFHzaEUYowwDAYD
VR0TBAUwAwEB/zANBgkqhkiG9w0BAQUFAAOCAQEAeXgMbXmIkfw6FZz5J2IW8CEf
+n0/oqgyHvfyEal0FnRe3BjK8AAq1QMGJjDxR4P9Mm787apPfQxjYDEvfAy/mWaH
7ScIhi3EM+iYIxz+o9uaSU78WkLvccM/rdxKqNKjHQmsMwR7hvNtAFmjyNvRPHP2
DpDWXkngvzZjCHulsI81O1aMETVJBBzQ57pWxQ0KkY3Wt2IZNBJSTNJtfMU9DxiB
VMv2POWE0tZxFewaNAvwoCF0Q8ijsN/ZZ9rirZNI+KCHvXkU4GIK3/cxLjF70TIq
Cv5dFO/ZZFDkg5G8cA3XiI3ZvIQOxRqzv2QCTlGRpKKFFYOv8FubKElfsrMD2A==
-----END CERTIFICATE-----
