Certificate:
    Data:
        Version: 3 (0x2)
        Serial Number: 1 (0x1)
    Signature Algorithm: sha256WithRSAEncryption
        Issuer: C=US, ST=Montana, L=Bozeman, O=Sawtooth, OU=Consulting, CN=www.wolfssl.com/emailAddress=info@wolfssl.com
        Validity
            Not Before: Jul 11 12:47:58 2014 GMT
            Not After : Apr  6 12:47:58 2017 GMT
        Subject: C=US, ST=Montana, L=Bozeman, O=Sawtooth, OU=Consulting, CN=www.wolfssl.com/emailAddress=info@wolfssl.com
        Subject Public Key Info:
            Public Key Algorithm: id-ecPublicKey
                Public-Key: (256 bit)
                pub: 
                    04:bb:33:ac:4c:27:50:4a:c6:4a:a5:04:c3:3c:de:
                    9f:36:db:72:2d:ce:94:ea:2b:fa:cb:20:09:39:2c:
                    16:e8:61:02:e9:af:4d:d3:02:93:9a:31:5b:97:92:
                    21:7f:f0:cf:18:da:91:11:02:34:86:e8:20:58:33:
                    0b:80:34:89:d8
                ASN1 OID: prime256v1
        X509v3 extensions:
            X509v3 Subject Key Identifier: 
                5D:5D:26:EF:AC:7E:36:F9:9B:76:15:2B:4A:25:02:23:EF:B2:89:30
            X509v3 Authority Key Identifier: 
                keyid:27:8E:67:11:74:C3:26:1D:3F:ED:33:63:B3:A4:D8:1D:30:E5:E8:D5
                DirName:/C=US/ST=Montana/L=Bozeman/O=Sawtooth/OU=Consulting/CN=www.wolfssl.com/emailAddress=info@wolfssl.com
                serial:9A:41:47:CD:A1:14:62:8C

            X509v3 Basic Constraints: 
                CA:TRUE
    Signature Algorithm: sha256WithRSAEncryption
         48:b6:a0:93:6d:ef:c2:8e:65:b6:74:25:9b:14:da:ce:38:e8:
         eb:f7:0c:8e:cd:3f:db:be:6b:7d:1c:bd:76:1b:56:3e:07:0f:
         a8:ff:9b:ef:d7:e8:7c:7b:f4:74:34:cf:1a:04:4d:79:11:72:
         5e:fe:a9:4a:5d:1a:57:69:b4:61:ea:27:72:62:48:90:c5:a6:
         e0:71:3b:3a:01:9d:a0:79:79:d1:37:52:23:c2:3c:41:f1:03:
         ba:77:d3:ac:9d:48:4f:49:47:b9:62:59:fd:eb:56:2b:4a:a8:
         28:37:3b:8a:74:85:1d:b2:df:3f:a8:48:7c:87:4e:2e:0e:1a:
         3d:7c:4a:47:15:15:1c:aa:ca:f1:05:73:a8:a5:10:c2:d3:4f:
         65:04:8c:4b:64:99:cf:e9:54:44:b5:e8:dd:c1:44:42:cf:b8:
         b5:61:8a:d0:a4:ce:c8:47:c8:21:ff:46:04:7b:25:cd:0f:fa:
         a0:8e:99:21:73:83:1a:a4:99:3f:21:b9:7b:ba:b3:aa:3f:fd:
         dd:c4:da:c7:d6:1b:a6:4f:0e:27:42:ad:03:11:d4:b9:84:6d:
         2c:b3:91:5b:28:90:af:80:39:d3:9a:ec:d4:e5:b3:4c:d3:3a:
         a3:c6:a1:dc:6a:bc:b7:cf:ab:ec:d7:e9:02:b0:30:42:ed:8d:
         1d:b2:ea:a0
-----BEGIN CERTIFICATE-----
MIID1zCCAr+gAwIBAgIBATANBgkqhkiG9w0BAQsFADCBlDELMAkGA1UEBhMCVVMx
EDAOBgNVBAgMB01vbnRhbmExEDAOBgNVBAcMB0JvemVtYW4xETAPBgNVBAoMCFNh
d3Rvb3RoMRMwEQYDVQQLDApDb25zdWx0aW5nMRgwFgYDVQQDDA93d3cud29sZnNz
bC5jb20xHzAdBgkqhkiG9w0BCQEWEGluZm9Ad29sZnNzbC5jb20wHhcNMTQwNzEx
MTI0NzU4WhcNMTcwNDA2MTI0NzU4WjCBlDELMAkGA1UEBhMCVVMxEDAOBgNVBAgM
B01vbnRhbmExEDAOBgNVBAcMB0JvemVtYW4xETAPBgNVBAoMCFNhd3Rvb3RoMRMw
EQYDVQQLDApDb25zdWx0aW5nMRgwFgYDVQQDDA93d3cud29sZnNzbC5jb20xHzAd
BgkqhkiG9w0BCQEWEGluZm9Ad29sZnNzbC5jb20wWTATBgcqhkjOPQIBBggqhkjO
PQMBBwNCAAS7M6xMJ1BKxkqlBMM83p8223ItzpTqK/rLIAk5LBboYQLpr03TApOa
MVuXkiF/8M8Y2pERAjSG6CBYMwuANInYo4H8MIH5MB0GA1UdDgQWBBRdXSbvrH42
+Zt2FStKJQIj77KJMDCByQYDVR0jBIHBMIG+gBQnjmcRdMMmHT/tM2OzpNgdMOXo
1aGBmqSBlzCBlDELMAkGA1UEBhMCVVMxEDAOBgNVBAgMB01vbnRhbmExEDAOBgNV
BAcMB0JvemVtYW4xETAPBgNVBAoMCFNhd3Rvb3RoMRMwEQYDVQQLDApDb25zdWx0
aW5nMRgwFgYDVQQDDA93d3cud29sZnNzbC5jb20xHzAdBgkqhkiG9w0BCQEWEGlu
Zm9Ad29sZnNzbC5jb22CCQCaQUfNoRRijDAMBgNVHRMEBTADAQH/MA0GCSqGSIb3
DQEBCwUAA4IBAQBItqCTbe/CjmW2dCWbFNrOOOjr9wyOzT/bvmt9HL12G1Y+Bw+o
/5vv1+h8e/R0NM8aBE15EXJe/qlKXRpXabRh6idyYkiQxabgcTs6AZ2geXnRN1Ij
wjxB8QO6d9OsnUhPSUe5Yln961YrSqgoNzuKdIUdst8/qEh8h04uDho9fEpHFRUc
qsrxBXOopRDC009lBIxLZJnP6VREtejdwURCz7i1YYrQpM7IR8gh/0YEeyXND/qg
jpkhc4MapJk/Ibl7urOqP/3dxNrH1humTw4nQq0DEdS5hG0ss5FbKJCvgDnTmuzU
5bNM0zqjxqHcary3z6vs1+kCsDBC7Y0dsuqg
-----END CERTIFICATE-----
