Certificate:
    Data:
        Version: 3 (0x2)
        Serial Number:
            fc:8b:e5:11:46:e3:1f:b0
    Signature Algorithm: sha1WithRSAEncryption
        Issuer: C=US, ST=Montana, L=Bozeman, O=Sawtooth, OU=Consulting, CN=wolfssl.com/emailAddress=info@wolfssl.com
        Validity
            Not Before: Jul  3 22:14:32 2014 GMT
            Not After : Mar 29 22:14:32 2017 GMT
        Subject: C=US, ST=Montana, L=Bozeman, O=Sawtooth, OU=Consulting, CN=wolfssl.com/emailAddress=info@wolfssl.com
        Subject Public Key Info:
            Public Key Algorithm: rsaEncryption
                Public-Key: (2048 bit)
                Modulus:
                    00:c0:95:08:e1:57:41:f2:71:6d:b7:d2:45:41:27:
                    01:65:c6:45:ae:f2:bc:24:30:b8:95:ce:2f:4e:d6:
                    f6:1c:88:bc:7c:9f:fb:a8:67:7f:fe:5c:9c:51:75:
                    f7:8a:ca:07:e7:35:2f:8f:e1:bd:7b:c0:2f:7c:ab:
                    64:a8:17:fc:ca:5d:7b:ba:e0:21:e5:72:2e:6f:2e:
                    86:d8:95:73:da:ac:1b:53:b9:5f:3f:d7:19:0d:25:
                    4f:e1:63:63:51:8b:0b:64:3f:ad:43:b8:a5:1c:5c:
                    34:b3:ae:00:a0:63:c5:f6:7f:0b:59:68:78:73:a6:
                    8c:18:a9:02:6d:af:c3:19:01:2e:b8:10:e3:c6:cc:
                    40:b4:69:a3:46:33:69:87:6e:c4:bb:17:a6:f3:e8:
                    dd:ad:73:bc:7b:2f:21:b5:fd:66:51:0c:bd:54:b3:
                    e1:6d:5f:1c:bc:23:73:d1:09:03:89:14:d2:10:b9:
                    64:c3:2a:d0:a1:96:4a:bc:e1:d4:1a:5b:c7:a0:c0:
                    c1:63:78:0f:44:37:30:32:96:80:32:23:95:a1:77:
                    ba:13:d2:97:73:e2:5d:25:c9:6a:0d:c3:39:60:a4:
                    b4:b0:69:42:42:09:e9:d8:08:bc:33:20:b3:58:22:
                    a7:aa:eb:c4:e1:e6:61:83:c5:d2:96:df:d9:d0:4f:
                    ad:d7
                Exponent: 65537 (0x10001)
        X509v3 extensions:
            X509v3 Subject Key Identifier: 
                B3:11:32:C9:92:98:84:E2:C9:F8:D0:3B:6E:03:42:CA:1F:0E:8E:3C
            X509v3 Authority Key Identifier: 
                keyid:B3:11:32:C9:92:98:84:E2:C9:F8:D0:3B:6E:03:42:CA:1F:0E:8E:3C

            X509v3 Basic Constraints: 
                CA:TRUE
    Signature Algorithm: sha1WithRSAEncryption
         5f:06:65:49:e2:29:73:01:82:88:dc:ca:6d:a1:22:74:7a:6d:
         c5:3d:44:c1:56:7b:82:39:85:e4:99:7a:b0:7e:b8:19:f9:83:
         28:ac:bf:d5:de:b2:84:3d:0b:8a:c4:17:bc:ae:1d:14:a6:3e:
         f7:78:6b:44:67:1e:68:50:e1:39:64:09:bc:86:92:55:d1:ea:
         d0:cc:00:a4:4c:d6:95:06:39:22:4f:1b:22:bd:25:a6:82:2e:
         a7:86:de:3d:ce:6c:ea:f0:33:56:8f:95:8c:91:a4:5b:7c:f3:
         f7:fe:20:6c:74:2f:89:53:e1:d7:9f:aa:80:7c:0e:80:ac:c0:
         94:58:09:73:22:53:fa:0f:50:7e:a4:7a:68:48:4a:3e:5a:d6:
         33:a2:03:51:d7:8b:b7:7e:b7:b3:6d:32:20:44:db:1c:ee:d7:
         1e:c6:03:45:e1:6b:15:0e:55:50:99:e3:e4:e5:89:f0:94:5c:
         f5:75:84:8b:b7:d0:65:d1:47:e0:1f:15:05:c5:2b:d0:13:8d:
         d7:b3:c5:5c:32:d1:6f:f1:23:1d:77:36:61:17:32:ff:32:e0:
         1a:6f:48:d3:ec:39:00:49:d5:b5:d8:01:00:17:c4:e5:60:87:
         ff:a3:5b:e7:c0:01:2f:03:a0:b5:57:63:7e:0f:4f:f6:67:f4:
         2e:87:de:ee
-----BEGIN CERTIFICATE-----
MIID9TCCAt2gAwIBAgIJAPyL5RFG4x+wMA0GCSqGSIb3DQEBBQUAMIGQMQswCQYD
VQQGEwJVUzEQMA4GA1UECAwHTW9udGFuYTEQMA4GA1UEBwwHQm96ZW1hbjERMA8G
A1UECgwIU2F3dG9vdGgxEzARBgNVBAsMCkNvbnN1bHRpbmcxFDASBgNVBAMMC3dv
bGZzc2wuY29tMR8wHQYJKoZIhvcNAQkBFhBpbmZvQHdvbGZzc2wuY29tMB4XDTE0
MDcwMzIyMTQzMloXDTE3MDMyOTIyMTQzMlowgZAxCzAJBgNVBAYTAlVTMRAwDgYD
VQQIDAdNb250YW5hMRAwDgYDVQQHDAdCb3plbWFuMREwDwYDVQQKDAhTYXd0b290
aDETMBEGA1UECwwKQ29uc3VsdGluZzEUMBIGA1UEAwwLd29sZnNzbC5jb20xHzAd
BgkqhkiG9w0BCQEWEGluZm9Ad29sZnNzbC5jb20wggEiMA0GCSqGSIb3DQEBAQUA
A4IBDwAwggEKAoIBAQDAlQjhV0HycW230kVBJwFlxkWu8rwkMLiVzi9O1vYciLx8
n/uoZ3/+XJxRdfeKygfnNS+P4b17wC98q2SoF/zKXXu64CHlci5vLobYlXParBtT
uV8/1xkNJU/hY2NRiwtkP61DuKUcXDSzrgCgY8X2fwtZaHhzpowYqQJtr8MZAS64
EOPGzEC0aaNGM2mHbsS7F6bz6N2tc7x7LyG1/WZRDL1Us+FtXxy8I3PRCQOJFNIQ
uWTDKtChlkq84dQaW8egwMFjeA9ENzAyloAyI5Whd7oT0pdz4l0lyWoNwzlgpLSw
aUJCCenYCLwzILNYIqeq68Th5mGDxdKW39nQT63XAgMBAAGjUDBOMB0GA1UdDgQW
BBSzETLJkpiE4sn40DtuA0LKHw6OPDAfBgNVHSMEGDAWgBSzETLJkpiE4sn40Dtu
A0LKHw6OPDAMBgNVHRMEBTADAQH/MA0GCSqGSIb3DQEBBQUAA4IBAQBfBmVJ4ilz
AYKI3MptoSJ0em3FPUTBVnuCOYXkmXqwfrgZ+YMorL/V3rKEPQuKxBe8rh0Upj73
eGtEZx5oUOE5ZAm8hpJV0erQzACkTNaVBjkiTxsivSWmgi6nht49zmzq8DNWj5WM
kaRbfPP3/iBsdC+JU+HXn6qAfA6ArMCUWAlzIlP6D1B+pHpoSEo+WtYzogNR14u3
frezbTIgRNsc7tcexgNF4WsVDlVQmePk5YnwlFz1dYSLt9Bl0UfgHxUFxSvQE43X
s8VcMtFv8SMddzZhFzL/MuAab0jT7DkASdW12AEAF8TlYIf/o1vnwAEvA6C1V2N+
D0/2Z/Quh97u
-----END CERTIFICATE-----
