Certificate:
    Data:
        Version: 3 (0x2)
        Serial Number: 1 (0x1)
    Signature Algorithm: sha256WithRSAEncryption
        Issuer: C=US, ST=Montana, L=Bozeman, O=Sawtooth, OU=Consulting, CN=www.wolfssl.com/emailAddress=info@wolfssl.com
        Validity
            Not Before: Jul 16 17:52:01 2014 GMT
            Not After : Apr 11 17:52:01 2017 GMT
        Subject: C=US, ST=Montana, L=Bozeman, O=Elliptic - RSAsig, OU=ECC-RSAsig, CN=www.wolfssl.com/emailAddress=info@wolfssl.com
        Subject Public Key Info:
            Public Key Algorithm: id-ecPublicKey
                Public-Key: (256 bit)
                pub: 
                    04:bb:33:ac:4c:27:50:4a:c6:4a:a5:04:c3:3c:de:
                    9f:36:db:72:2d:ce:94:ea:2b:fa:cb:20:09:39:2c:
                    16:e8:61:02:e9:af:4d:d3:02:93:9a:31:5b:97:92:
                    21:7f:f0:cf:18:da:91:11:02:34:86:e8:20:58:33:
                    0b:80:34:89:d8
                ASN1 OID: prime256v1
        X509v3 extensions:
            X509v3 Subject Key Identifier: 
                5D:5D:26:EF:AC:7E:36:F9:9B:76:15:2B:4A:25:02:23:EF:B2:89:30
            X509v3 Authority Key Identifier: 
                keyid:27:8E:67:11:74:C3:26:1D:3F:ED:33:63:B3:A4:D8:1D:30:E5:E8:D5
                DirName:/C=US/ST=Montana/L=Bozeman/O=Sawtooth/OU=Consulting/CN=www.wolfssl.com/emailAddress=info@wolfssl.com
                serial:F2:70:01:D4:28:AF:7C:AB

            X509v3 Basic Constraints: 
                CA:TRUE
    Signature Algorithm: sha256WithRSAEncryption
         7d:44:e4:fc:3b:32:af:e5:ba:93:69:bd:be:0b:bd:64:86:d8:
         ce:fc:9f:6e:1e:ed:3a:15:75:ae:af:8d:f8:72:44:fe:fa:42:
         78:13:fe:42:a1:bd:a8:fc:ea:20:fa:f7:34:cd:2b:64:e1:84:
         55:2d:dd:97:2e:f1:cc:d2:6d:e9:46:40:29:0b:bc:7c:10:c0:
         2e:0e:9b:aa:28:f9:01:e2:e9:34:82:a5:b9:83:1c:ee:e9:93:
         92:e5:a9:77:7f:0f:df:19:83:4e:11:94:c1:fa:01:45:3a:1d:
         68:55:5a:68:75:57:00:79:c1:1d:6e:4d:48:26:35:89:41:6e:
         59:34:ac:8b:e1:1a:99:b8:ab:6d:e0:cf:65:71:38:06:e8:85:
         fc:8d:ec:04:0e:3b:95:c0:81:5b:66:e8:7c:a4:28:13:69:ea:
         61:b0:fe:6a:c5:99:a5:da:8a:6d:aa:f4:b7:8d:f7:e4:26:52:
         bc:93:c8:97:28:95:12:6a:b1:09:34:c1:97:7e:aa:13:fe:cf:
         fd:e6:34:41:5a:82:5d:9d:15:d5:39:53:e2:98:04:ca:bc:b3:
         41:3f:41:62:33:b7:ac:4b:b6:2d:11:1c:c8:41:f1:e5:a9:71:
         12:e9:85:b8:1a:1e:4d:2e:83:55:51:f4:f5:1b:64:8d:e0:72:
         a6:9d:a9:c2
-----BEGIN CERTIFICATE-----
MIID4DCCAsigAwIBAgIBATANBgkqhkiG9w0BAQsFADCBlDELMAkGA1UEBhMCVVMx
EDAOBgNVBAgMB01vbnRhbmExEDAOBgNVBAcMB0JvemVtYW4xETAPBgNVBAoMCFNh
d3Rvb3RoMRMwEQYDVQQLDApDb25zdWx0aW5nMRgwFgYDVQQDDA93d3cud29sZnNz
bC5jb20xHzAdBgkqhkiG9w0BCQEWEGluZm9Ad29sZnNzbC5jb20wHhcNMTQwNzE2
MTc1MjAxWhcNMTcwNDExMTc1MjAxWjCBnTELMAkGA1UEBhMCVVMxEDAOBgNVBAgM
B01vbnRhbmExEDAOBgNVBAcMB0JvemVtYW4xGjAYBgNVBAoMEUVsbGlwdGljIC0g
UlNBc2lnMRMwEQYDVQQLDApFQ0MtUlNBc2lnMRgwFgYDVQQDDA93d3cud29sZnNz
bC5jb20xHzAdBgkqhkiG9w0BCQEWEGluZm9Ad29sZnNzbC5jb20wWTATBgcqhkjO
PQIBBggqhkjOPQMBBwNCAAS7M6xMJ1BKxkqlBMM83p8223ItzpTqK/rLIAk5LBbo
YQLpr03TApOaMVuXkiF/8M8Y2pERAjSG6CBYMwuANInYo4H8MIH5MB0GA1UdDgQW
BBRdXSbvrH42+Zt2FStKJQIj77KJMDCByQYDVR0jBIHBMIG+gBQnjmcRdMMmHT/t
M2OzpNgdMOXo1aGBmqSBlzCBlDELMAkGA1UEBhMCVVMxEDAOBgNVBAgMB01vbnRh
bmExEDAOBgNVBAcMB0JvemVtYW4xETAPBgNVBAoMCFNhd3Rvb3RoMRMwEQYDVQQL
DApDb25zdWx0aW5nMRgwFgYDVQQDDA93d3cud29sZnNzbC5jb20xHzAdBgkqhkiG
9w0BCQEWEGluZm9Ad29sZnNzbC5jb22CCQDycAHUKK98qzAMBgNVHRMEBTADAQH/
MA0GCSqGSIb3DQEBCwUAA4IBAQB9ROT8OzKv5bqTab2+C71khtjO/J9uHu06FXWu
r434ckT++kJ4E/5Cob2o/Oog+vc0zStk4YRVLd2XLvHM0m3pRkApC7x8EMAuDpuq
KPkB4uk0gqW5gxzu6ZOS5al3fw/fGYNOEZTB+gFFOh1oVVpodVcAecEdbk1IJjWJ
QW5ZNKyL4RqZuKtt4M9lcTgG6IX8jewEDjuVwIFbZuh8pCgTaephsP5qxZml2opt
qvS3jffkJlK8k8iXKJUSarEJNMGXfqoT/s/95jRBWoJdnRXVOVPimATKvLNBP0Fi
M7esS7YtERzIQfHlqXES6YW4Gh5NLoNVUfT1G2SN4HKmnanC
-----END CERTIFICATE-----
