Certificate:
    Data:
        Version: 3 (0x2)
        Serial Number: 1 (0x1)
    Signature Algorithm: sha256WithRSAEncryption
        Issuer: C=US, ST=Montana, L=Bozeman, O=Sawtooth, OU=Consulting, CN=www.wolfssl.com/emailAddress=info@wolfssl.com
        Validity
            Not Before: Jul 11 12:31:32 2014 GMT
            Not After : Apr  6 12:31:32 2017 GMT
        Subject: C=US, ST=Montana, L=Bozeman, O=Sawtooth, OU=Consulting, CN=www.wolfssl.com/emailAddress=info@wolfssl.com
        Subject Public Key Info:
            Public Key Algorithm: rsaEncryption
                Public-Key: (2048 bit)
                Modulus:
                    00:c0:95:08:e1:57:41:f2:71:6d:b7:d2:45:41:27:
                    01:65:c6:45:ae:f2:bc:24:30:b8:95:ce:2f:4e:d6:
                    f6:1c:88:bc:7c:9f:fb:a8:67:7f:fe:5c:9c:51:75:
                    f7:8a:ca:07:e7:35:2f:8f:e1:bd:7b:c0:2f:7c:ab:
                    64:a8:17:fc:ca:5d:7b:ba:e0:21:e5:72:2e:6f:2e:
                    86:d8:95:73:da:ac:1b:53:b9:5f:3f:d7:19:0d:25:
                    4f:e1:63:63:51:8b:0b:64:3f:ad:43:b8:a5:1c:5c:
                    34:b3:ae:00:a0:63:c5:f6:7f:0b:59:68:78:73:a6:
                    8c:18:a9:02:6d:af:c3:19:01:2e:b8:10:e3:c6:cc:
                    40:b4:69:a3:46:33:69:87:6e:c4:bb:17:a6:f3:e8:
                    dd:ad:73:bc:7b:2f:21:b5:fd:66:51:0c:bd:54:b3:
                    e1:6d:5f:1c:bc:23:73:d1:09:03:89:14:d2:10:b9:
                    64:c3:2a:d0:a1:96:4a:bc:e1:d4:1a:5b:c7:a0:c0:
                    c1:63:78:0f:44:37:30:32:96:80:32:23:95:a1:77:
                    ba:13:d2:97:73:e2:5d:25:c9:6a:0d:c3:39:60:a4:
                    b4:b0:69:42:42:09:e9:d8:08:bc:33:20:b3:58:22:
                    a7:aa:eb:c4:e1:e6:61:83:c5:d2:96:df:d9:d0:4f:
                    ad:d7
                Exponent: 65537 (0x10001)
        X509v3 extensions:
            X509v3 Subject Key Identifier: 
                B3:11:32:C9:92:98:84:E2:C9:F8:D0:3B:6E:03:42:CA:1F:0E:8E:3C
            X509v3 Authority Key Identifier: 
                keyid:27:8E:67:11:74:C3:26:1D:3F:ED:33:63:B3:A4:D8:1D:30:E5:E8:D5
                DirName:/C=US/ST=Montana/L=Bozeman/O=Sawtooth/OU=Consulting/CN=www.wolfssl.com/emailAddress=info@wolfssl.com
                serial:9A:41:47:CD:A1:14:62:8C

            X509v3 Basic Constraints: 
                CA:TRUE
    Signature Algorithm: sha256WithRSAEncryption
         22:4a:8f:ce:43:ae:30:44:e8:2f:b0:f8:fa:89:95:1c:0d:ca:
         d2:e0:0b:70:ee:de:e3:93:7f:17:08:82:2a:9c:5f:5f:0a:19:
         9e:42:c4:9d:da:a7:4f:bf:a0:6a:35:f1:ae:de:de:d0:e9:30:
         20:63:91:12:94:a7:b8:86:8f:15:54:b4:97:90:90:43:cf:8c:
         49:d1:4b:c8:e4:e6:93:d3:1d:b5:d5:a2:73:eb:26:19:23:e8:
         00:4b:58:8a:36:45:51:9e:6b:33:e2:de:fc:ef:31:8e:2e:88:
         c3:2f:13:ed:a7:57:f7:da:c6:15:64:e1:fb:53:3f:b7:55:37:
         54:35:ba:fd:9c:6b:3c:e7:df:8e:07:29:b6:69:25:40:92:bc:
         67:54:00:d9:bf:4b:25:f9:d3:8a:94:75:32:44:fd:7d:36:e6:
         88:9d:d5:86:76:ea:60:41:ad:bc:3a:29:dd:cd:da:bf:1d:8c:
         88:2d:7a:f8:19:08:e4:dc:6a:f9:b6:72:eb:eb:e9:f4:10:a5:
         4f:59:a5:36:dd:30:46:87:68:81:3e:df:68:d6:27:d1:d8:0f:
         ad:46:69:2f:bb:28:d6:30:10:fe:87:f6:ee:e4:76:e8:e1:19:
         a6:56:30:47:30:61:15:44:4f:3c:0c:c3:3d:f9:4c:d0:43:5c:
         11:cd:4f:b2
-----BEGIN CERTIFICATE-----
MIIEojCCA4qgAwIBAgIBATANBgkqhkiG9w0BAQsFADCBlDELMAkGA1UEBhMCVVMx
EDAOBgNVBAgMB01vbnRhbmExEDAOBgNVBAcMB0JvemVtYW4xETAPBgNVBAoMCFNh
d3Rvb3RoMRMwEQYDVQQLDApDb25zdWx0aW5nMRgwFgYDVQQDDA93d3cud29sZnNz
bC5jb20xHzAdBgkqhkiG9w0BCQEWEGluZm9Ad29sZnNzbC5jb20wHhcNMTQwNzEx
MTIzMTMyWhcNMTcwNDA2MTIzMTMyWjCBlDELMAkGA1UEBhMCVVMxEDAOBgNVBAgM
B01vbnRhbmExEDAOBgNVBAcMB0JvemVtYW4xETAPBgNVBAoMCFNhd3Rvb3RoMRMw
EQYDVQQLDApDb25zdWx0aW5nMRgwFgYDVQQDDA93d3cud29sZnNzbC5jb20xHzAd
BgkqhkiG9w0BCQEWEGluZm9Ad29sZnNzbC5jb20wggEiMA0GCSqGSIb3DQEBAQUA
A4IBDwAwggEKAoIBAQDAlQjhV0HycW230kVBJwFlxkWu8rwkMLiVzi9O1vYciLx8
n/uoZ3/+XJxRdfeKygfnNS+P4b17wC98q2SoF/zKXXu64CHlci5vLobYlXParBtT
uV8/1xkNJU/hY2NRiwtkP61DuKUcXDSzrgCgY8X2fwtZaHhzpowYqQJtr8MZAS64
EOPGzEC0aaNGM2mHbsS7F6bz6N2tc7x7LyG1/WZRDL1Us+FtXxy8I3PRCQOJFNIQ
uWTDKtChlkq84dQaW8egwMFjeA9ENzAyloAyI5Whd7oT0pdz4l0lyWoNwzlgpLSw
aUJCCenYCLwzILNYIqeq68Th5mGDxdKW39nQT63XAgMBAAGjgfwwgfkwHQYDVR0O
BBYEFLMRMsmSmITiyfjQO24DQsofDo48MIHJBgNVHSMEgcEwgb6AFCeOZxF0wyYd
P+0zY7Ok2B0w5ejVoYGapIGXMIGUMQswCQYDVQQGEwJVUzEQMA4GA1UECAwHTW9u
dGFuYTEQMA4GA1UEBwwHQm96ZW1hbjERMA8GA1UECgwIU2F3dG9vdGgxEzARBgNV
BAsMCkNvbnN1bHRpbmcxGDAWBgNVBAMMD3d3dy53b2xmc3NsLmNvbTEfMB0GCSqG
SIb3DQEJARYQaW5mb0B3b2xmc3NsLmNvbYIJAJpBR82hFGKMMAwGA1UdEwQFMAMB
Af8wDQYJKoZIhvcNAQELBQADggEBACJKj85DrjBE6C+w+PqJlRwNytLgC3Du3uOT
fxcIgiqcX18KGZ5CxJ3ap0+/oGo18a7e3tDpMCBjkRKUp7iGjxVUtJeQkEPPjEnR
S8jk5pPTHbXVonPrJhkj6ABLWIo2RVGeazPi3vzvMY4uiMMvE+2nV/faxhVk4ftT
P7dVN1Q1uv2cazzn344HKbZpJUCSvGdUANm/SyX504qUdTJE/X025oid1YZ26mBB
rbw6Kd3N2r8djIgtevgZCOTcavm2cuvr6fQQpU9ZpTbdMEaHaIE+32jWJ9HYD61G
aS+7KNYwEP6H9u7kdujhGaZWMEcwYRVETzwMwz35TNBDXBHNT7I=
-----END CERTIFICATE-----
