Certificate:
    Data:
        Version: 1 (0x0)
        Serial Number: 1 (0x1)
    Signature Algorithm: sha1WithRSAEncryption
        Issuer: C=US, ST=Montana, L=Bozeman, O=Sawtooth, OU=Consulting, CN=www.yassl.com/emailAddress=info@yassl.com
        Validity
            Not Before: Jul 11 02:09:45 2014 GMT
            Not After : Apr  6 02:09:45 2017 GMT
        Subject: C=US, ST=Montana, L=Bozeman, O=Sawtooth, OU=Consulting, CN=www.wolfssl.com/emailAddress=info@wolfssl.com
        Subject Public Key Info:
            Public Key Algorithm: rsaEncryption
                Public-Key: (2048 bit)
                Modulus:
                    00:c0:95:08:e1:57:41:f2:71:6d:b7:d2:45:41:27:
                    01:65:c6:45:ae:f2:bc:24:30:b8:95:ce:2f:4e:d6:
                    f6:1c:88:bc:7c:9f:fb:a8:67:7f:fe:5c:9c:51:75:
                    f7:8a:ca:07:e7:35:2f:8f:e1:bd:7b:c0:2f:7c:ab:
                    64:a8:17:fc:ca:5d:7b:ba:e0:21:e5:72:2e:6f:2e:
                    86:d8:95:73:da:ac:1b:53:b9:5f:3f:d7:19:0d:25:
                    4f:e1:63:63:51:8b:0b:64:3f:ad:43:b8:a5:1c:5c:
                    34:b3:ae:00:a0:63:c5:f6:7f:0b:59:68:78:73:a6:
                    8c:18:a9:02:6d:af:c3:19:01:2e:b8:10:e3:c6:cc:
                    40:b4:69:a3:46:33:69:87:6e:c4:bb:17:a6:f3:e8:
                    dd:ad:73:bc:7b:2f:21:b5:fd:66:51:0c:bd:54:b3:
                    e1:6d:5f:1c:bc:23:73:d1:09:03:89:14:d2:10:b9:
                    64:c3:2a:d0:a1:96:4a:bc:e1:d4:1a:5b:c7:a0:c0:
                    c1:63:78:0f:44:37:30:32:96:80:32:23:95:a1:77:
                    ba:13:d2:97:73:e2:5d:25:c9:6a:0d:c3:39:60:a4:
                    b4:b0:69:42:42:09:e9:d8:08:bc:33:20:b3:58:22:
                    a7:aa:eb:c4:e1:e6:61:83:c5:d2:96:df:d9:d0:4f:
                    ad:d7
                Exponent: 65537 (0x10001)
    Signature Algorithm: sha1WithRSAEncryption
         4e:09:d6:32:73:c8:c0:e1:ff:56:ad:b4:72:5d:3e:4e:4d:67:
         3f:18:d5:9e:87:61:17:2d:f8:fa:34:3f:43:7f:73:76:a8:14:
         7e:91:4e:8c:9e:47:08:36:07:8d:c9:96:72:af:78:5c:53:78:
         34:91:40:9f:b3:1e:99:20:c5:cd:7a:70:7c:a0:6c:34:7f:87:
         68:f4:b9:a7:e8:45:13:ec:24:e1:93:74:d6:2e:aa:18:18:26:
         e2:2c:dd:97:98:8f:99:ed:db:9d:21:87:b2:93:73:ac:7b:b2:
         18:e3:74:dc:e6:4a:08:13:7c:77:41:58:5a:8b:39:91:9b:43:
         e3:6e:f0:7e:4e:85:04:22:4c:c8:84:c5:67:a4:aa:c8:9d:99:
         66:f9:73:7a:95:07:1d:88:84:08:f7:bd:c1:6a:f2:f4:fa:6a:
         84:91:80:84:3e:d3:ce:e2:e5:03:dc:c6:3c:92:20:64:04:06:
         d8:e5:40:a5:e0:92:3d:04:49:e7:c4:80:5a:88:29:c7:02:ae:
         9f:dd:8c:92:59:d7:7b:92:0c:9b:f0:72:7e:53:69:2a:d2:de:
         76:58:8d:76:f6:19:b5:a4:b3:11:33:3b:ba:17:c2:eb:96:6a:
         6f:87:ab:bc:18:8b:a6:b4:9d:ca:4e:11:14:91:91:8a:f5:a7:
         ed:c1:4d:bb
-----BEGIN CERTIFICATE-----
MIIDmjCCAoICAQEwDQYJKoZIhvcNAQEFBQAwgZAxCzAJBgNVBAYTAlVTMRAwDgYD
VQQIEwdNb250YW5hMRAwDgYDVQQHEwdCb3plbWFuMREwDwYDVQQKEwhTYXd0b290
aDETMBEGA1UECxMKQ29uc3VsdGluZzEWMBQGA1UEAxMNd3d3Lnlhc3NsLmNvbTEd
MBsGCSqGSIb3DQEJARYOaW5mb0B5YXNzbC5jb20wHhcNMTQwNzExMDIwOTQ1WhcN
MTcwNDA2MDIwOTQ1WjCBlDELMAkGA1UEBhMCVVMxEDAOBgNVBAgMB01vbnRhbmEx
EDAOBgNVBAcMB0JvemVtYW4xETAPBgNVBAoMCFNhd3Rvb3RoMRMwEQYDVQQLDApD
b25zdWx0aW5nMRgwFgYDVQQDDA93d3cud29sZnNzbC5jb20xHzAdBgkqhkiG9w0B
CQEWEGluZm9Ad29sZnNzbC5jb20wggEiMA0GCSqGSIb3DQEBAQUAA4IBDwAwggEK
AoIBAQDAlQjhV0HycW230kVBJwFlxkWu8rwkMLiVzi9O1vYciLx8n/uoZ3/+XJxR
dfeKygfnNS+P4b17wC98q2SoF/zKXXu64CHlci5vLobYlXParBtTuV8/1xkNJU/h
Y2NRiwtkP61DuKUcXDSzrgCgY8X2fwtZaHhzpowYqQJtr8MZAS64EOPGzEC0aaNG
M2mHbsS7F6bz6N2tc7x7LyG1/WZRDL1Us+FtXxy8I3PRCQOJFNIQuWTDKtChlkq8
4dQaW8egwMFjeA9ENzAyloAyI5Whd7oT0pdz4l0lyWoNwzlgpLSwaUJCCenYCLwz
ILNYIqeq68Th5mGDxdKW39nQT63XAgMBAAEwDQYJKoZIhvcNAQEFBQADggEBAE4J
1jJzyMDh/1attHJdPk5NZz8Y1Z6HYRct+Po0P0N/c3aoFH6RToyeRwg2B43JlnKv
eFxTeDSRQJ+zHpkgxc16cHygbDR/h2j0uafoRRPsJOGTdNYuqhgYJuIs3ZeYj5nt
250hh7KTc6x7shjjdNzmSggTfHdBWFqLOZGbQ+Nu8H5OhQQiTMiExWekqsidmWb5
c3qVBx2IhAj3vcFq8vT6aoSRgIQ+087i5QPcxjySIGQEBtjlQKXgkj0ESefEgFqI
KccCrp/djJJZ13uSDJvwcn5TaSrS3nZYjXb2GbWksxEzO7oXwuuWam+Hq7wYi6a0
ncpOERSRkYr1p+3BTbs=
-----END CERTIFICATE-----
